

Microchip MPLAB XC8 Assembler V2.36 build 20220127204148 
                                                                                               Fri Feb 11 14:24:11 2022

Microchip MPLAB XC8 C Compiler v2.36 (Free license) build 20220127204148 Og1 
     1                           	processor	16F18345
     2                           	pagewidth 120
     3                           	opt	flic
     4                           	psect	idataCOMMON,global,class=CODE,delta=2,noexec
     5                           	psect	idataBANK0,global,class=CODE,delta=2,noexec
     6                           	psect	stringtext1,global,class=STRCODE,delta=2,noexec
     7                           	psect	cinit,global,class=CODE,merge=1,delta=2
     8                           	psect	bssCOMMON,global,class=COMMON,space=1,delta=1,noexec
     9                           	psect	dataCOMMON,global,class=COMMON,space=1,delta=1,noexec
    10                           	psect	bssBANK0,global,class=BANK0,space=1,delta=1,noexec
    11                           	psect	dataBANK0,global,class=BANK0,space=1,delta=1,noexec
    12                           	psect	cstackCOMMON,global,class=COMMON,space=1,delta=1,noexec
    13                           	psect	maintext,global,class=CODE,merge=1,split=1,delta=2
    14                           	psect	text1,local,class=CODE,merge=1,delta=2
    15                           	psect	text2,local,class=CODE,merge=1,delta=2
    16                           	psect	text3,local,class=CODE,merge=1,delta=2
    17                           	psect	text4,local,class=CODE,merge=1,delta=2
    18                           	psect	text5,local,class=CODE,merge=1,delta=2
    19                           	psect	text6,local,class=CODE,merge=1,delta=2
    20                           	psect	text7,local,class=CODE,merge=1,delta=2
    21                           	psect	text8,local,class=CODE,merge=1,delta=2
    22                           	psect	text9,local,class=CODE,merge=1,delta=2
    23                           	psect	idloc,global,abs,ovrld,class=IDLOC,space=5,delta=2,noexec
    24                           	psect	config,global,abs,ovrld,class=CONFIG,space=4,delta=2,noexec
    25                           	dabs	1,0x7E,2
    26  0000                     
    27                           ; Version 2.40
    28                           ; Generated 02/12/2021 GMT
    29                           ; 
    30                           ; Copyright © 2021, Microchip Technology Inc. and its subsidiaries ("Microchip")
    31                           ; All rights reserved.
    32                           ; 
    33                           ; This software is developed by Microchip Technology Inc. and its subsidiaries ("Microch
      +                          ip").
    34                           ; 
    35                           ; Redistribution and use in source and binary forms, with or without modification, are
    36                           ; permitted provided that the following conditions are met:
    37                           ; 
    38                           ;     1. Redistributions of source code must retain the above copyright notice, this lis
      +                          t of
    39                           ;        conditions and the following disclaimer.
    40                           ; 
    41                           ;     2. Redistributions in binary form must reproduce the above copyright notice, this 
      +                          list
    42                           ;        of conditions and the following disclaimer in the documentation and/or other
    43                           ;        materials provided with the distribution. Publication is not required when
    44                           ;        this file is used in an embedded application.
    45                           ; 
    46                           ;     3. Microchip's name may not be used to endorse or promote products derived from th
      +                          is
    47                           ;        software without specific prior written permission.
    48                           ; 
    49                           ; THIS SOFTWARE IS PROVIDED BY MICROCHIP "AS IS" AND ANY EXPRESS OR IMPLIED WARRANTIES,
    50                           ; INCLUDING, BUT NOT LIMITED TO, THE IMPLIED WARRANTIES OF MERCHANTABILITY AND FITNESS F
      +                          OR
    51                           ; PURPOSE ARE DISCLAIMED.  IN NO EVENT SHALL MICROCHIP BE LIABLE FOR ANY DIRECT, INDIREC
      +                          T,
    52                           ; INCIDENTAL, SPECIAL, EXEMPLARY, OR CONSEQUENTIAL DAMAGES (INCLUDING BUT NOT LIMITED TO
    53                           ; PROCUREMENT OF SUBSTITUTE GOODS OR SERVICES; LOSS OF USE, DATA OR PROFITS; OR BUSINESS
    54                           ; INTERRUPTION) HOWSOEVER CAUSED AND ON ANY THEORY OF LIABILITY, WHETHER IN CONTRACT, ST
      +                          RICT
    55                           ; LIABILITY, OR TORT (INCLUDING NEGLIGENCE OR OTHERWISE) ARISING IN ANY WAY OUT OF THE U
      +                          SE OF
    56                           ; THIS SOFTWARE, EVEN IF ADVISED OF THE POSSIBILITY OF SUCH DAMAGE.
    57                           ; 
    58                           ; 
    59                           ; Code-generator required, PIC16F18345 Definitions
    60                           ; 
    61                           ; SFR Addresses
    62  0000                     	;# 
    63  0001                     	;# 
    64  0002                     	;# 
    65  0003                     	;# 
    66  0004                     	;# 
    67  0005                     	;# 
    68  0006                     	;# 
    69  0007                     	;# 
    70  0008                     	;# 
    71  0009                     	;# 
    72  000A                     	;# 
    73  000B                     	;# 
    74  000C                     	;# 
    75  000D                     	;# 
    76  000E                     	;# 
    77  0010                     	;# 
    78  0011                     	;# 
    79  0012                     	;# 
    80  0013                     	;# 
    81  0014                     	;# 
    82  0015                     	;# 
    83  0015                     	;# 
    84  0016                     	;# 
    85  0016                     	;# 
    86  0017                     	;# 
    87  0018                     	;# 
    88  0019                     	;# 
    89  0019                     	;# 
    90  001A                     	;# 
    91  001B                     	;# 
    92  001C                     	;# 
    93  001D                     	;# 
    94  001E                     	;# 
    95  001F                     	;# 
    96  008C                     	;# 
    97  008D                     	;# 
    98  008E                     	;# 
    99  0090                     	;# 
   100  0091                     	;# 
   101  0092                     	;# 
   102  0093                     	;# 
   103  0094                     	;# 
   104  0097                     	;# 
   105  009B                     	;# 
   106  009B                     	;# 
   107  009C                     	;# 
   108  009D                     	;# 
   109  009E                     	;# 
   110  009F                     	;# 
   111  010C                     	;# 
   112  010D                     	;# 
   113  010E                     	;# 
   114  0111                     	;# 
   115  0112                     	;# 
   116  0113                     	;# 
   117  0114                     	;# 
   118  0115                     	;# 
   119  0116                     	;# 
   120  0117                     	;# 
   121  0118                     	;# 
   122  0119                     	;# 
   123  018C                     	;# 
   124  018D                     	;# 
   125  018E                     	;# 
   126  0197                     	;# 
   127  0199                     	;# 
   128  0199                     	;# 
   129  0199                     	;# 
   130  019A                     	;# 
   131  019A                     	;# 
   132  019A                     	;# 
   133  019B                     	;# 
   134  019B                     	;# 
   135  019B                     	;# 
   136  019B                     	;# 
   137  019B                     	;# 
   138  019C                     	;# 
   139  019C                     	;# 
   140  019C                     	;# 
   141  019D                     	;# 
   142  019D                     	;# 
   143  019D                     	;# 
   144  019E                     	;# 
   145  019E                     	;# 
   146  019E                     	;# 
   147  019F                     	;# 
   148  019F                     	;# 
   149  019F                     	;# 
   150  019F                     	;# 
   151  019F                     	;# 
   152  020C                     	;# 
   153  020D                     	;# 
   154  020E                     	;# 
   155  0211                     	;# 
   156  0211                     	;# 
   157  0212                     	;# 
   158  0212                     	;# 
   159  0213                     	;# 
   160  0213                     	;# 
   161  0214                     	;# 
   162  0214                     	;# 
   163  0215                     	;# 
   164  0215                     	;# 
   165  0215                     	;# 
   166  0215                     	;# 
   167  0216                     	;# 
   168  0216                     	;# 
   169  0217                     	;# 
   170  0217                     	;# 
   171  0219                     	;# 
   172  021A                     	;# 
   173  021B                     	;# 
   174  021C                     	;# 
   175  021D                     	;# 
   176  021D                     	;# 
   177  021E                     	;# 
   178  021F                     	;# 
   179  028C                     	;# 
   180  028D                     	;# 
   181  028E                     	;# 
   182  0291                     	;# 
   183  0291                     	;# 
   184  0292                     	;# 
   185  0293                     	;# 
   186  0294                     	;# 
   187  0295                     	;# 
   188  0295                     	;# 
   189  0296                     	;# 
   190  0297                     	;# 
   191  0298                     	;# 
   192  029F                     	;# 
   193  030C                     	;# 
   194  030D                     	;# 
   195  030E                     	;# 
   196  0311                     	;# 
   197  0311                     	;# 
   198  0312                     	;# 
   199  0313                     	;# 
   200  0314                     	;# 
   201  0315                     	;# 
   202  0315                     	;# 
   203  0316                     	;# 
   204  0317                     	;# 
   205  0318                     	;# 
   206  038C                     	;# 
   207  038D                     	;# 
   208  038E                     	;# 
   209  0391                     	;# 
   210  0392                     	;# 
   211  0393                     	;# 
   212  0394                     	;# 
   213  0395                     	;# 
   214  0396                     	;# 
   215  0397                     	;# 
   216  0398                     	;# 
   217  0399                     	;# 
   218  039A                     	;# 
   219  039C                     	;# 
   220  039D                     	;# 
   221  039E                     	;# 
   222  039F                     	;# 
   223  0411                     	;# 
   224  0411                     	;# 
   225  0412                     	;# 
   226  0413                     	;# 
   227  0414                     	;# 
   228  0415                     	;# 
   229  0416                     	;# 
   230  0417                     	;# 
   231  0418                     	;# 
   232  0418                     	;# 
   233  0419                     	;# 
   234  041A                     	;# 
   235  041B                     	;# 
   236  041C                     	;# 
   237  041D                     	;# 
   238  041E                     	;# 
   239  041F                     	;# 
   240  0498                     	;# 
   241  0498                     	;# 
   242  0499                     	;# 
   243  049A                     	;# 
   244  049B                     	;# 
   245  049B                     	;# 
   246  049C                     	;# 
   247  049D                     	;# 
   248  049E                     	;# 
   249  049F                     	;# 
   250  0617                     	;# 
   251  0618                     	;# 
   252  0619                     	;# 
   253  0619                     	;# 
   254  061A                     	;# 
   255  061B                     	;# 
   256  061C                     	;# 
   257  061C                     	;# 
   258  061F                     	;# 
   259  0691                     	;# 
   260  0692                     	;# 
   261  0693                     	;# 
   262  0694                     	;# 
   263  0695                     	;# 
   264  0696                     	;# 
   265  0697                     	;# 
   266  0698                     	;# 
   267  0699                     	;# 
   268  0711                     	;# 
   269  0712                     	;# 
   270  0713                     	;# 
   271  0714                     	;# 
   272  0715                     	;# 
   273  0716                     	;# 
   274  0717                     	;# 
   275  0718                     	;# 
   276  0719                     	;# 
   277  0891                     	;# 
   278  0891                     	;# 
   279  0891                     	;# 
   280  0891                     	;# 
   281  0891                     	;# 
   282  0891                     	;# 
   283  0892                     	;# 
   284  0892                     	;# 
   285  0892                     	;# 
   286  0893                     	;# 
   287  0893                     	;# 
   288  0893                     	;# 
   289  0893                     	;# 
   290  0893                     	;# 
   291  0893                     	;# 
   292  0894                     	;# 
   293  0894                     	;# 
   294  0894                     	;# 
   295  0895                     	;# 
   296  0895                     	;# 
   297  0895                     	;# 
   298  0896                     	;# 
   299  0896                     	;# 
   300  0896                     	;# 
   301  089B                     	;# 
   302  0911                     	;# 
   303  0912                     	;# 
   304  0913                     	;# 
   305  0914                     	;# 
   306  0915                     	;# 
   307  0916                     	;# 
   308  0918                     	;# 
   309  0919                     	;# 
   310  091A                     	;# 
   311  091B                     	;# 
   312  091C                     	;# 
   313  091D                     	;# 
   314  091E                     	;# 
   315  091F                     	;# 
   316  0E0F                     	;# 
   317  0E10                     	;# 
   318  0E11                     	;# 
   319  0E12                     	;# 
   320  0E13                     	;# 
   321  0E14                     	;# 
   322  0E15                     	;# 
   323  0E16                     	;# 
   324  0E17                     	;# 
   325  0E18                     	;# 
   326  0E19                     	;# 
   327  0E1A                     	;# 
   328  0E1B                     	;# 
   329  0E1C                     	;# 
   330  0E1D                     	;# 
   331  0E1E                     	;# 
   332  0E1F                     	;# 
   333  0E20                     	;# 
   334  0E21                     	;# 
   335  0E22                     	;# 
   336  0E24                     	;# 
   337  0E25                     	;# 
   338  0E28                     	;# 
   339  0E29                     	;# 
   340  0E2A                     	;# 
   341  0E2B                     	;# 
   342  0E2C                     	;# 
   343  0E2D                     	;# 
   344  0E2E                     	;# 
   345  0E2F                     	;# 
   346  0E90                     	;# 
   347  0E91                     	;# 
   348  0E92                     	;# 
   349  0E94                     	;# 
   350  0E95                     	;# 
   351  0E9C                     	;# 
   352  0E9D                     	;# 
   353  0E9E                     	;# 
   354  0E9F                     	;# 
   355  0EA0                     	;# 
   356  0EA1                     	;# 
   357  0EA2                     	;# 
   358  0EA3                     	;# 
   359  0EA4                     	;# 
   360  0EA5                     	;# 
   361  0EA6                     	;# 
   362  0EA7                     	;# 
   363  0F0F                     	;# 
   364  0F10                     	;# 
   365  0F11                     	;# 
   366  0F12                     	;# 
   367  0F13                     	;# 
   368  0F14                     	;# 
   369  0F15                     	;# 
   370  0F16                     	;# 
   371  0F17                     	;# 
   372  0F18                     	;# 
   373  0F19                     	;# 
   374  0F1A                     	;# 
   375  0F1B                     	;# 
   376  0F1C                     	;# 
   377  0F1D                     	;# 
   378  0F1E                     	;# 
   379  0F1F                     	;# 
   380  0F20                     	;# 
   381  0F21                     	;# 
   382  0F22                     	;# 
   383  0F23                     	;# 
   384  0F24                     	;# 
   385  0F25                     	;# 
   386  0F26                     	;# 
   387  0F27                     	;# 
   388  0F28                     	;# 
   389  0F29                     	;# 
   390  0F2A                     	;# 
   391  0F2B                     	;# 
   392  0F2C                     	;# 
   393  0F2D                     	;# 
   394  0F2E                     	;# 
   395  0F2F                     	;# 
   396  0F30                     	;# 
   397  0F31                     	;# 
   398  0F32                     	;# 
   399  0F33                     	;# 
   400  0F34                     	;# 
   401  0F35                     	;# 
   402  0F36                     	;# 
   403  0F37                     	;# 
   404  0FE4                     	;# 
   405  0FE5                     	;# 
   406  0FE6                     	;# 
   407  0FE7                     	;# 
   408  0FE8                     	;# 
   409  0FE9                     	;# 
   410  0FEA                     	;# 
   411  0FEB                     	;# 
   412  0FED                     	;# 
   413  0FEE                     	;# 
   414  0FEF                     	;# 
   415  0000                     	;# 
   416  0001                     	;# 
   417  0002                     	;# 
   418  0003                     	;# 
   419  0004                     	;# 
   420  0005                     	;# 
   421  0006                     	;# 
   422  0007                     	;# 
   423  0008                     	;# 
   424  0009                     	;# 
   425  000A                     	;# 
   426  000B                     	;# 
   427  000C                     	;# 
   428  000D                     	;# 
   429  000E                     	;# 
   430  0010                     	;# 
   431  0011                     	;# 
   432  0012                     	;# 
   433  0013                     	;# 
   434  0014                     	;# 
   435  0015                     	;# 
   436  0015                     	;# 
   437  0016                     	;# 
   438  0016                     	;# 
   439  0017                     	;# 
   440  0018                     	;# 
   441  0019                     	;# 
   442  0019                     	;# 
   443  001A                     	;# 
   444  001B                     	;# 
   445  001C                     	;# 
   446  001D                     	;# 
   447  001E                     	;# 
   448  001F                     	;# 
   449  008C                     	;# 
   450  008D                     	;# 
   451  008E                     	;# 
   452  0090                     	;# 
   453  0091                     	;# 
   454  0092                     	;# 
   455  0093                     	;# 
   456  0094                     	;# 
   457  0097                     	;# 
   458  009B                     	;# 
   459  009B                     	;# 
   460  009C                     	;# 
   461  009D                     	;# 
   462  009E                     	;# 
   463  009F                     	;# 
   464  010C                     	;# 
   465  010D                     	;# 
   466  010E                     	;# 
   467  0111                     	;# 
   468  0112                     	;# 
   469  0113                     	;# 
   470  0114                     	;# 
   471  0115                     	;# 
   472  0116                     	;# 
   473  0117                     	;# 
   474  0118                     	;# 
   475  0119                     	;# 
   476  018C                     	;# 
   477  018D                     	;# 
   478  018E                     	;# 
   479  0197                     	;# 
   480  0199                     	;# 
   481  0199                     	;# 
   482  0199                     	;# 
   483  019A                     	;# 
   484  019A                     	;# 
   485  019A                     	;# 
   486  019B                     	;# 
   487  019B                     	;# 
   488  019B                     	;# 
   489  019B                     	;# 
   490  019B                     	;# 
   491  019C                     	;# 
   492  019C                     	;# 
   493  019C                     	;# 
   494  019D                     	;# 
   495  019D                     	;# 
   496  019D                     	;# 
   497  019E                     	;# 
   498  019E                     	;# 
   499  019E                     	;# 
   500  019F                     	;# 
   501  019F                     	;# 
   502  019F                     	;# 
   503  019F                     	;# 
   504  019F                     	;# 
   505  020C                     	;# 
   506  020D                     	;# 
   507  020E                     	;# 
   508  0211                     	;# 
   509  0211                     	;# 
   510  0212                     	;# 
   511  0212                     	;# 
   512  0213                     	;# 
   513  0213                     	;# 
   514  0214                     	;# 
   515  0214                     	;# 
   516  0215                     	;# 
   517  0215                     	;# 
   518  0215                     	;# 
   519  0215                     	;# 
   520  0216                     	;# 
   521  0216                     	;# 
   522  0217                     	;# 
   523  0217                     	;# 
   524  0219                     	;# 
   525  021A                     	;# 
   526  021B                     	;# 
   527  021C                     	;# 
   528  021D                     	;# 
   529  021D                     	;# 
   530  021E                     	;# 
   531  021F                     	;# 
   532  028C                     	;# 
   533  028D                     	;# 
   534  028E                     	;# 
   535  0291                     	;# 
   536  0291                     	;# 
   537  0292                     	;# 
   538  0293                     	;# 
   539  0294                     	;# 
   540  0295                     	;# 
   541  0295                     	;# 
   542  0296                     	;# 
   543  0297                     	;# 
   544  0298                     	;# 
   545  029F                     	;# 
   546  030C                     	;# 
   547  030D                     	;# 
   548  030E                     	;# 
   549  0311                     	;# 
   550  0311                     	;# 
   551  0312                     	;# 
   552  0313                     	;# 
   553  0314                     	;# 
   554  0315                     	;# 
   555  0315                     	;# 
   556  0316                     	;# 
   557  0317                     	;# 
   558  0318                     	;# 
   559  038C                     	;# 
   560  038D                     	;# 
   561  038E                     	;# 
   562  0391                     	;# 
   563  0392                     	;# 
   564  0393                     	;# 
   565  0394                     	;# 
   566  0395                     	;# 
   567  0396                     	;# 
   568  0397                     	;# 
   569  0398                     	;# 
   570  0399                     	;# 
   571  039A                     	;# 
   572  039C                     	;# 
   573  039D                     	;# 
   574  039E                     	;# 
   575  039F                     	;# 
   576  0411                     	;# 
   577  0411                     	;# 
   578  0412                     	;# 
   579  0413                     	;# 
   580  0414                     	;# 
   581  0415                     	;# 
   582  0416                     	;# 
   583  0417                     	;# 
   584  0418                     	;# 
   585  0418                     	;# 
   586  0419                     	;# 
   587  041A                     	;# 
   588  041B                     	;# 
   589  041C                     	;# 
   590  041D                     	;# 
   591  041E                     	;# 
   592  041F                     	;# 
   593  0498                     	;# 
   594  0498                     	;# 
   595  0499                     	;# 
   596  049A                     	;# 
   597  049B                     	;# 
   598  049B                     	;# 
   599  049C                     	;# 
   600  049D                     	;# 
   601  049E                     	;# 
   602  049F                     	;# 
   603  0617                     	;# 
   604  0618                     	;# 
   605  0619                     	;# 
   606  0619                     	;# 
   607  061A                     	;# 
   608  061B                     	;# 
   609  061C                     	;# 
   610  061C                     	;# 
   611  061F                     	;# 
   612  0691                     	;# 
   613  0692                     	;# 
   614  0693                     	;# 
   615  0694                     	;# 
   616  0695                     	;# 
   617  0696                     	;# 
   618  0697                     	;# 
   619  0698                     	;# 
   620  0699                     	;# 
   621  0711                     	;# 
   622  0712                     	;# 
   623  0713                     	;# 
   624  0714                     	;# 
   625  0715                     	;# 
   626  0716                     	;# 
   627  0717                     	;# 
   628  0718                     	;# 
   629  0719                     	;# 
   630  0891                     	;# 
   631  0891                     	;# 
   632  0891                     	;# 
   633  0891                     	;# 
   634  0891                     	;# 
   635  0891                     	;# 
   636  0892                     	;# 
   637  0892                     	;# 
   638  0892                     	;# 
   639  0893                     	;# 
   640  0893                     	;# 
   641  0893                     	;# 
   642  0893                     	;# 
   643  0893                     	;# 
   644  0893                     	;# 
   645  0894                     	;# 
   646  0894                     	;# 
   647  0894                     	;# 
   648  0895                     	;# 
   649  0895                     	;# 
   650  0895                     	;# 
   651  0896                     	;# 
   652  0896                     	;# 
   653  0896                     	;# 
   654  089B                     	;# 
   655  0911                     	;# 
   656  0912                     	;# 
   657  0913                     	;# 
   658  0914                     	;# 
   659  0915                     	;# 
   660  0916                     	;# 
   661  0918                     	;# 
   662  0919                     	;# 
   663  091A                     	;# 
   664  091B                     	;# 
   665  091C                     	;# 
   666  091D                     	;# 
   667  091E                     	;# 
   668  091F                     	;# 
   669  0E0F                     	;# 
   670  0E10                     	;# 
   671  0E11                     	;# 
   672  0E12                     	;# 
   673  0E13                     	;# 
   674  0E14                     	;# 
   675  0E15                     	;# 
   676  0E16                     	;# 
   677  0E17                     	;# 
   678  0E18                     	;# 
   679  0E19                     	;# 
   680  0E1A                     	;# 
   681  0E1B                     	;# 
   682  0E1C                     	;# 
   683  0E1D                     	;# 
   684  0E1E                     	;# 
   685  0E1F                     	;# 
   686  0E20                     	;# 
   687  0E21                     	;# 
   688  0E22                     	;# 
   689  0E24                     	;# 
   690  0E25                     	;# 
   691  0E28                     	;# 
   692  0E29                     	;# 
   693  0E2A                     	;# 
   694  0E2B                     	;# 
   695  0E2C                     	;# 
   696  0E2D                     	;# 
   697  0E2E                     	;# 
   698  0E2F                     	;# 
   699  0E90                     	;# 
   700  0E91                     	;# 
   701  0E92                     	;# 
   702  0E94                     	;# 
   703  0E95                     	;# 
   704  0E9C                     	;# 
   705  0E9D                     	;# 
   706  0E9E                     	;# 
   707  0E9F                     	;# 
   708  0EA0                     	;# 
   709  0EA1                     	;# 
   710  0EA2                     	;# 
   711  0EA3                     	;# 
   712  0EA4                     	;# 
   713  0EA5                     	;# 
   714  0EA6                     	;# 
   715  0EA7                     	;# 
   716  0F0F                     	;# 
   717  0F10                     	;# 
   718  0F11                     	;# 
   719  0F12                     	;# 
   720  0F13                     	;# 
   721  0F14                     	;# 
   722  0F15                     	;# 
   723  0F16                     	;# 
   724  0F17                     	;# 
   725  0F18                     	;# 
   726  0F19                     	;# 
   727  0F1A                     	;# 
   728  0F1B                     	;# 
   729  0F1C                     	;# 
   730  0F1D                     	;# 
   731  0F1E                     	;# 
   732  0F1F                     	;# 
   733  0F20                     	;# 
   734  0F21                     	;# 
   735  0F22                     	;# 
   736  0F23                     	;# 
   737  0F24                     	;# 
   738  0F25                     	;# 
   739  0F26                     	;# 
   740  0F27                     	;# 
   741  0F28                     	;# 
   742  0F29                     	;# 
   743  0F2A                     	;# 
   744  0F2B                     	;# 
   745  0F2C                     	;# 
   746  0F2D                     	;# 
   747  0F2E                     	;# 
   748  0F2F                     	;# 
   749  0F30                     	;# 
   750  0F31                     	;# 
   751  0F32                     	;# 
   752  0F33                     	;# 
   753  0F34                     	;# 
   754  0F35                     	;# 
   755  0F36                     	;# 
   756  0F37                     	;# 
   757  0FE4                     	;# 
   758  0FE5                     	;# 
   759  0FE6                     	;# 
   760  0FE7                     	;# 
   761  0FE8                     	;# 
   762  0FE9                     	;# 
   763  0FEA                     	;# 
   764  0FEB                     	;# 
   765  0FED                     	;# 
   766  0FEE                     	;# 
   767  0FEF                     	;# 
   768  0000                     	;# 
   769  0001                     	;# 
   770  0002                     	;# 
   771  0003                     	;# 
   772  0004                     	;# 
   773  0005                     	;# 
   774  0006                     	;# 
   775  0007                     	;# 
   776  0008                     	;# 
   777  0009                     	;# 
   778  000A                     	;# 
   779  000B                     	;# 
   780  000C                     	;# 
   781  000D                     	;# 
   782  000E                     	;# 
   783  0010                     	;# 
   784  0011                     	;# 
   785  0012                     	;# 
   786  0013                     	;# 
   787  0014                     	;# 
   788  0015                     	;# 
   789  0015                     	;# 
   790  0016                     	;# 
   791  0016                     	;# 
   792  0017                     	;# 
   793  0018                     	;# 
   794  0019                     	;# 
   795  0019                     	;# 
   796  001A                     	;# 
   797  001B                     	;# 
   798  001C                     	;# 
   799  001D                     	;# 
   800  001E                     	;# 
   801  001F                     	;# 
   802  008C                     	;# 
   803  008D                     	;# 
   804  008E                     	;# 
   805  0090                     	;# 
   806  0091                     	;# 
   807  0092                     	;# 
   808  0093                     	;# 
   809  0094                     	;# 
   810  0097                     	;# 
   811  009B                     	;# 
   812  009B                     	;# 
   813  009C                     	;# 
   814  009D                     	;# 
   815  009E                     	;# 
   816  009F                     	;# 
   817  010C                     	;# 
   818  010D                     	;# 
   819  010E                     	;# 
   820  0111                     	;# 
   821  0112                     	;# 
   822  0113                     	;# 
   823  0114                     	;# 
   824  0115                     	;# 
   825  0116                     	;# 
   826  0117                     	;# 
   827  0118                     	;# 
   828  0119                     	;# 
   829  018C                     	;# 
   830  018D                     	;# 
   831  018E                     	;# 
   832  0197                     	;# 
   833  0199                     	;# 
   834  0199                     	;# 
   835  0199                     	;# 
   836  019A                     	;# 
   837  019A                     	;# 
   838  019A                     	;# 
   839  019B                     	;# 
   840  019B                     	;# 
   841  019B                     	;# 
   842  019B                     	;# 
   843  019B                     	;# 
   844  019C                     	;# 
   845  019C                     	;# 
   846  019C                     	;# 
   847  019D                     	;# 
   848  019D                     	;# 
   849  019D                     	;# 
   850  019E                     	;# 
   851  019E                     	;# 
   852  019E                     	;# 
   853  019F                     	;# 
   854  019F                     	;# 
   855  019F                     	;# 
   856  019F                     	;# 
   857  019F                     	;# 
   858  020C                     	;# 
   859  020D                     	;# 
   860  020E                     	;# 
   861  0211                     	;# 
   862  0211                     	;# 
   863  0212                     	;# 
   864  0212                     	;# 
   865  0213                     	;# 
   866  0213                     	;# 
   867  0214                     	;# 
   868  0214                     	;# 
   869  0215                     	;# 
   870  0215                     	;# 
   871  0215                     	;# 
   872  0215                     	;# 
   873  0216                     	;# 
   874  0216                     	;# 
   875  0217                     	;# 
   876  0217                     	;# 
   877  0219                     	;# 
   878  021A                     	;# 
   879  021B                     	;# 
   880  021C                     	;# 
   881  021D                     	;# 
   882  021D                     	;# 
   883  021E                     	;# 
   884  021F                     	;# 
   885  028C                     	;# 
   886  028D                     	;# 
   887  028E                     	;# 
   888  0291                     	;# 
   889  0291                     	;# 
   890  0292                     	;# 
   891  0293                     	;# 
   892  0294                     	;# 
   893  0295                     	;# 
   894  0295                     	;# 
   895  0296                     	;# 
   896  0297                     	;# 
   897  0298                     	;# 
   898  029F                     	;# 
   899  030C                     	;# 
   900  030D                     	;# 
   901  030E                     	;# 
   902  0311                     	;# 
   903  0311                     	;# 
   904  0312                     	;# 
   905  0313                     	;# 
   906  0314                     	;# 
   907  0315                     	;# 
   908  0315                     	;# 
   909  0316                     	;# 
   910  0317                     	;# 
   911  0318                     	;# 
   912  038C                     	;# 
   913  038D                     	;# 
   914  038E                     	;# 
   915  0391                     	;# 
   916  0392                     	;# 
   917  0393                     	;# 
   918  0394                     	;# 
   919  0395                     	;# 
   920  0396                     	;# 
   921  0397                     	;# 
   922  0398                     	;# 
   923  0399                     	;# 
   924  039A                     	;# 
   925  039C                     	;# 
   926  039D                     	;# 
   927  039E                     	;# 
   928  039F                     	;# 
   929  0411                     	;# 
   930  0411                     	;# 
   931  0412                     	;# 
   932  0413                     	;# 
   933  0414                     	;# 
   934  0415                     	;# 
   935  0416                     	;# 
   936  0417                     	;# 
   937  0418                     	;# 
   938  0418                     	;# 
   939  0419                     	;# 
   940  041A                     	;# 
   941  041B                     	;# 
   942  041C                     	;# 
   943  041D                     	;# 
   944  041E                     	;# 
   945  041F                     	;# 
   946  0498                     	;# 
   947  0498                     	;# 
   948  0499                     	;# 
   949  049A                     	;# 
   950  049B                     	;# 
   951  049B                     	;# 
   952  049C                     	;# 
   953  049D                     	;# 
   954  049E                     	;# 
   955  049F                     	;# 
   956  0617                     	;# 
   957  0618                     	;# 
   958  0619                     	;# 
   959  0619                     	;# 
   960  061A                     	;# 
   961  061B                     	;# 
   962  061C                     	;# 
   963  061C                     	;# 
   964  061F                     	;# 
   965  0691                     	;# 
   966  0692                     	;# 
   967  0693                     	;# 
   968  0694                     	;# 
   969  0695                     	;# 
   970  0696                     	;# 
   971  0697                     	;# 
   972  0698                     	;# 
   973  0699                     	;# 
   974  0711                     	;# 
   975  0712                     	;# 
   976  0713                     	;# 
   977  0714                     	;# 
   978  0715                     	;# 
   979  0716                     	;# 
   980  0717                     	;# 
   981  0718                     	;# 
   982  0719                     	;# 
   983  0891                     	;# 
   984  0891                     	;# 
   985  0891                     	;# 
   986  0891                     	;# 
   987  0891                     	;# 
   988  0891                     	;# 
   989  0892                     	;# 
   990  0892                     	;# 
   991  0892                     	;# 
   992  0893                     	;# 
   993  0893                     	;# 
   994  0893                     	;# 
   995  0893                     	;# 
   996  0893                     	;# 
   997  0893                     	;# 
   998  0894                     	;# 
   999  0894                     	;# 
  1000  0894                     	;# 
  1001  0895                     	;# 
  1002  0895                     	;# 
  1003  0895                     	;# 
  1004  0896                     	;# 
  1005  0896                     	;# 
  1006  0896                     	;# 
  1007  089B                     	;# 
  1008  0911                     	;# 
  1009  0912                     	;# 
  1010  0913                     	;# 
  1011  0914                     	;# 
  1012  0915                     	;# 
  1013  0916                     	;# 
  1014  0918                     	;# 
  1015  0919                     	;# 
  1016  091A                     	;# 
  1017  091B                     	;# 
  1018  091C                     	;# 
  1019  091D                     	;# 
  1020  091E                     	;# 
  1021  091F                     	;# 
  1022  0E0F                     	;# 
  1023  0E10                     	;# 
  1024  0E11                     	;# 
  1025  0E12                     	;# 
  1026  0E13                     	;# 
  1027  0E14                     	;# 
  1028  0E15                     	;# 
  1029  0E16                     	;# 
  1030  0E17                     	;# 
  1031  0E18                     	;# 
  1032  0E19                     	;# 
  1033  0E1A                     	;# 
  1034  0E1B                     	;# 
  1035  0E1C                     	;# 
  1036  0E1D                     	;# 
  1037  0E1E                     	;# 
  1038  0E1F                     	;# 
  1039  0E20                     	;# 
  1040  0E21                     	;# 
  1041  0E22                     	;# 
  1042  0E24                     	;# 
  1043  0E25                     	;# 
  1044  0E28                     	;# 
  1045  0E29                     	;# 
  1046  0E2A                     	;# 
  1047  0E2B                     	;# 
  1048  0E2C                     	;# 
  1049  0E2D                     	;# 
  1050  0E2E                     	;# 
  1051  0E2F                     	;# 
  1052  0E90                     	;# 
  1053  0E91                     	;# 
  1054  0E92                     	;# 
  1055  0E94                     	;# 
  1056  0E95                     	;# 
  1057  0E9C                     	;# 
  1058  0E9D                     	;# 
  1059  0E9E                     	;# 
  1060  0E9F                     	;# 
  1061  0EA0                     	;# 
  1062  0EA1                     	;# 
  1063  0EA2                     	;# 
  1064  0EA3                     	;# 
  1065  0EA4                     	;# 
  1066  0EA5                     	;# 
  1067  0EA6                     	;# 
  1068  0EA7                     	;# 
  1069  0F0F                     	;# 
  1070  0F10                     	;# 
  1071  0F11                     	;# 
  1072  0F12                     	;# 
  1073  0F13                     	;# 
  1074  0F14                     	;# 
  1075  0F15                     	;# 
  1076  0F16                     	;# 
  1077  0F17                     	;# 
  1078  0F18                     	;# 
  1079  0F19                     	;# 
  1080  0F1A                     	;# 
  1081  0F1B                     	;# 
  1082  0F1C                     	;# 
  1083  0F1D                     	;# 
  1084  0F1E                     	;# 
  1085  0F1F                     	;# 
  1086  0F20                     	;# 
  1087  0F21                     	;# 
  1088  0F22                     	;# 
  1089  0F23                     	;# 
  1090  0F24                     	;# 
  1091  0F25                     	;# 
  1092  0F26                     	;# 
  1093  0F27                     	;# 
  1094  0F28                     	;# 
  1095  0F29                     	;# 
  1096  0F2A                     	;# 
  1097  0F2B                     	;# 
  1098  0F2C                     	;# 
  1099  0F2D                     	;# 
  1100  0F2E                     	;# 
  1101  0F2F                     	;# 
  1102  0F30                     	;# 
  1103  0F31                     	;# 
  1104  0F32                     	;# 
  1105  0F33                     	;# 
  1106  0F34                     	;# 
  1107  0F35                     	;# 
  1108  0F36                     	;# 
  1109  0F37                     	;# 
  1110  0FE4                     	;# 
  1111  0FE5                     	;# 
  1112  0FE6                     	;# 
  1113  0FE7                     	;# 
  1114  0FE8                     	;# 
  1115  0FE9                     	;# 
  1116  0FEA                     	;# 
  1117  0FEB                     	;# 
  1118  0FED                     	;# 
  1119  0FEE                     	;# 
  1120  0FEF                     	;# 
  1121  0000                     	;# 
  1122  0001                     	;# 
  1123  0002                     	;# 
  1124  0003                     	;# 
  1125  0004                     	;# 
  1126  0005                     	;# 
  1127  0006                     	;# 
  1128  0007                     	;# 
  1129  0008                     	;# 
  1130  0009                     	;# 
  1131  000A                     	;# 
  1132  000B                     	;# 
  1133  000C                     	;# 
  1134  000D                     	;# 
  1135  000E                     	;# 
  1136  0010                     	;# 
  1137  0011                     	;# 
  1138  0012                     	;# 
  1139  0013                     	;# 
  1140  0014                     	;# 
  1141  0015                     	;# 
  1142  0015                     	;# 
  1143  0016                     	;# 
  1144  0016                     	;# 
  1145  0017                     	;# 
  1146  0018                     	;# 
  1147  0019                     	;# 
  1148  0019                     	;# 
  1149  001A                     	;# 
  1150  001B                     	;# 
  1151  001C                     	;# 
  1152  001D                     	;# 
  1153  001E                     	;# 
  1154  001F                     	;# 
  1155  008C                     	;# 
  1156  008D                     	;# 
  1157  008E                     	;# 
  1158  0090                     	;# 
  1159  0091                     	;# 
  1160  0092                     	;# 
  1161  0093                     	;# 
  1162  0094                     	;# 
  1163  0097                     	;# 
  1164  009B                     	;# 
  1165  009B                     	;# 
  1166  009C                     	;# 
  1167  009D                     	;# 
  1168  009E                     	;# 
  1169  009F                     	;# 
  1170  010C                     	;# 
  1171  010D                     	;# 
  1172  010E                     	;# 
  1173  0111                     	;# 
  1174  0112                     	;# 
  1175  0113                     	;# 
  1176  0114                     	;# 
  1177  0115                     	;# 
  1178  0116                     	;# 
  1179  0117                     	;# 
  1180  0118                     	;# 
  1181  0119                     	;# 
  1182  018C                     	;# 
  1183  018D                     	;# 
  1184  018E                     	;# 
  1185  0197                     	;# 
  1186  0199                     	;# 
  1187  0199                     	;# 
  1188  0199                     	;# 
  1189  019A                     	;# 
  1190  019A                     	;# 
  1191  019A                     	;# 
  1192  019B                     	;# 
  1193  019B                     	;# 
  1194  019B                     	;# 
  1195  019B                     	;# 
  1196  019B                     	;# 
  1197  019C                     	;# 
  1198  019C                     	;# 
  1199  019C                     	;# 
  1200  019D                     	;# 
  1201  019D                     	;# 
  1202  019D                     	;# 
  1203  019E                     	;# 
  1204  019E                     	;# 
  1205  019E                     	;# 
  1206  019F                     	;# 
  1207  019F                     	;# 
  1208  019F                     	;# 
  1209  019F                     	;# 
  1210  019F                     	;# 
  1211  020C                     	;# 
  1212  020D                     	;# 
  1213  020E                     	;# 
  1214  0211                     	;# 
  1215  0211                     	;# 
  1216  0212                     	;# 
  1217  0212                     	;# 
  1218  0213                     	;# 
  1219  0213                     	;# 
  1220  0214                     	;# 
  1221  0214                     	;# 
  1222  0215                     	;# 
  1223  0215                     	;# 
  1224  0215                     	;# 
  1225  0215                     	;# 
  1226  0216                     	;# 
  1227  0216                     	;# 
  1228  0217                     	;# 
  1229  0217                     	;# 
  1230  0219                     	;# 
  1231  021A                     	;# 
  1232  021B                     	;# 
  1233  021C                     	;# 
  1234  021D                     	;# 
  1235  021D                     	;# 
  1236  021E                     	;# 
  1237  021F                     	;# 
  1238  028C                     	;# 
  1239  028D                     	;# 
  1240  028E                     	;# 
  1241  0291                     	;# 
  1242  0291                     	;# 
  1243  0292                     	;# 
  1244  0293                     	;# 
  1245  0294                     	;# 
  1246  0295                     	;# 
  1247  0295                     	;# 
  1248  0296                     	;# 
  1249  0297                     	;# 
  1250  0298                     	;# 
  1251  029F                     	;# 
  1252  030C                     	;# 
  1253  030D                     	;# 
  1254  030E                     	;# 
  1255  0311                     	;# 
  1256  0311                     	;# 
  1257  0312                     	;# 
  1258  0313                     	;# 
  1259  0314                     	;# 
  1260  0315                     	;# 
  1261  0315                     	;# 
  1262  0316                     	;# 
  1263  0317                     	;# 
  1264  0318                     	;# 
  1265  038C                     	;# 
  1266  038D                     	;# 
  1267  038E                     	;# 
  1268  0391                     	;# 
  1269  0392                     	;# 
  1270  0393                     	;# 
  1271  0394                     	;# 
  1272  0395                     	;# 
  1273  0396                     	;# 
  1274  0397                     	;# 
  1275  0398                     	;# 
  1276  0399                     	;# 
  1277  039A                     	;# 
  1278  039C                     	;# 
  1279  039D                     	;# 
  1280  039E                     	;# 
  1281  039F                     	;# 
  1282  0411                     	;# 
  1283  0411                     	;# 
  1284  0412                     	;# 
  1285  0413                     	;# 
  1286  0414                     	;# 
  1287  0415                     	;# 
  1288  0416                     	;# 
  1289  0417                     	;# 
  1290  0418                     	;# 
  1291  0418                     	;# 
  1292  0419                     	;# 
  1293  041A                     	;# 
  1294  041B                     	;# 
  1295  041C                     	;# 
  1296  041D                     	;# 
  1297  041E                     	;# 
  1298  041F                     	;# 
  1299  0498                     	;# 
  1300  0498                     	;# 
  1301  0499                     	;# 
  1302  049A                     	;# 
  1303  049B                     	;# 
  1304  049B                     	;# 
  1305  049C                     	;# 
  1306  049D                     	;# 
  1307  049E                     	;# 
  1308  049F                     	;# 
  1309  0617                     	;# 
  1310  0618                     	;# 
  1311  0619                     	;# 
  1312  0619                     	;# 
  1313  061A                     	;# 
  1314  061B                     	;# 
  1315  061C                     	;# 
  1316  061C                     	;# 
  1317  061F                     	;# 
  1318  0691                     	;# 
  1319  0692                     	;# 
  1320  0693                     	;# 
  1321  0694                     	;# 
  1322  0695                     	;# 
  1323  0696                     	;# 
  1324  0697                     	;# 
  1325  0698                     	;# 
  1326  0699                     	;# 
  1327  0711                     	;# 
  1328  0712                     	;# 
  1329  0713                     	;# 
  1330  0714                     	;# 
  1331  0715                     	;# 
  1332  0716                     	;# 
  1333  0717                     	;# 
  1334  0718                     	;# 
  1335  0719                     	;# 
  1336  0891                     	;# 
  1337  0891                     	;# 
  1338  0891                     	;# 
  1339  0891                     	;# 
  1340  0891                     	;# 
  1341  0891                     	;# 
  1342  0892                     	;# 
  1343  0892                     	;# 
  1344  0892                     	;# 
  1345  0893                     	;# 
  1346  0893                     	;# 
  1347  0893                     	;# 
  1348  0893                     	;# 
  1349  0893                     	;# 
  1350  0893                     	;# 
  1351  0894                     	;# 
  1352  0894                     	;# 
  1353  0894                     	;# 
  1354  0895                     	;# 
  1355  0895                     	;# 
  1356  0895                     	;# 
  1357  0896                     	;# 
  1358  0896                     	;# 
  1359  0896                     	;# 
  1360  089B                     	;# 
  1361  0911                     	;# 
  1362  0912                     	;# 
  1363  0913                     	;# 
  1364  0914                     	;# 
  1365  0915                     	;# 
  1366  0916                     	;# 
  1367  0918                     	;# 
  1368  0919                     	;# 
  1369  091A                     	;# 
  1370  091B                     	;# 
  1371  091C                     	;# 
  1372  091D                     	;# 
  1373  091E                     	;# 
  1374  091F                     	;# 
  1375  0E0F                     	;# 
  1376  0E10                     	;# 
  1377  0E11                     	;# 
  1378  0E12                     	;# 
  1379  0E13                     	;# 
  1380  0E14                     	;# 
  1381  0E15                     	;# 
  1382  0E16                     	;# 
  1383  0E17                     	;# 
  1384  0E18                     	;# 
  1385  0E19                     	;# 
  1386  0E1A                     	;# 
  1387  0E1B                     	;# 
  1388  0E1C                     	;# 
  1389  0E1D                     	;# 
  1390  0E1E                     	;# 
  1391  0E1F                     	;# 
  1392  0E20                     	;# 
  1393  0E21                     	;# 
  1394  0E22                     	;# 
  1395  0E24                     	;# 
  1396  0E25                     	;# 
  1397  0E28                     	;# 
  1398  0E29                     	;# 
  1399  0E2A                     	;# 
  1400  0E2B                     	;# 
  1401  0E2C                     	;# 
  1402  0E2D                     	;# 
  1403  0E2E                     	;# 
  1404  0E2F                     	;# 
  1405  0E90                     	;# 
  1406  0E91                     	;# 
  1407  0E92                     	;# 
  1408  0E94                     	;# 
  1409  0E95                     	;# 
  1410  0E9C                     	;# 
  1411  0E9D                     	;# 
  1412  0E9E                     	;# 
  1413  0E9F                     	;# 
  1414  0EA0                     	;# 
  1415  0EA1                     	;# 
  1416  0EA2                     	;# 
  1417  0EA3                     	;# 
  1418  0EA4                     	;# 
  1419  0EA5                     	;# 
  1420  0EA6                     	;# 
  1421  0EA7                     	;# 
  1422  0F0F                     	;# 
  1423  0F10                     	;# 
  1424  0F11                     	;# 
  1425  0F12                     	;# 
  1426  0F13                     	;# 
  1427  0F14                     	;# 
  1428  0F15                     	;# 
  1429  0F16                     	;# 
  1430  0F17                     	;# 
  1431  0F18                     	;# 
  1432  0F19                     	;# 
  1433  0F1A                     	;# 
  1434  0F1B                     	;# 
  1435  0F1C                     	;# 
  1436  0F1D                     	;# 
  1437  0F1E                     	;# 
  1438  0F1F                     	;# 
  1439  0F20                     	;# 
  1440  0F21                     	;# 
  1441  0F22                     	;# 
  1442  0F23                     	;# 
  1443  0F24                     	;# 
  1444  0F25                     	;# 
  1445  0F26                     	;# 
  1446  0F27                     	;# 
  1447  0F28                     	;# 
  1448  0F29                     	;# 
  1449  0F2A                     	;# 
  1450  0F2B                     	;# 
  1451  0F2C                     	;# 
  1452  0F2D                     	;# 
  1453  0F2E                     	;# 
  1454  0F2F                     	;# 
  1455  0F30                     	;# 
  1456  0F31                     	;# 
  1457  0F32                     	;# 
  1458  0F33                     	;# 
  1459  0F34                     	;# 
  1460  0F35                     	;# 
  1461  0F36                     	;# 
  1462  0F37                     	;# 
  1463  0FE4                     	;# 
  1464  0FE5                     	;# 
  1465  0FE6                     	;# 
  1466  0FE7                     	;# 
  1467  0FE8                     	;# 
  1468  0FE9                     	;# 
  1469  0FEA                     	;# 
  1470  0FEB                     	;# 
  1471  0FED                     	;# 
  1472  0FEE                     	;# 
  1473  0FEF                     	;# 
  1474  0000                     	;# 
  1475  0001                     	;# 
  1476  0002                     	;# 
  1477  0003                     	;# 
  1478  0004                     	;# 
  1479  0005                     	;# 
  1480  0006                     	;# 
  1481  0007                     	;# 
  1482  0008                     	;# 
  1483  0009                     	;# 
  1484  000A                     	;# 
  1485  000B                     	;# 
  1486  000C                     	;# 
  1487  000D                     	;# 
  1488  000E                     	;# 
  1489  0010                     	;# 
  1490  0011                     	;# 
  1491  0012                     	;# 
  1492  0013                     	;# 
  1493  0014                     	;# 
  1494  0015                     	;# 
  1495  0015                     	;# 
  1496  0016                     	;# 
  1497  0016                     	;# 
  1498  0017                     	;# 
  1499  0018                     	;# 
  1500  0019                     	;# 
  1501  0019                     	;# 
  1502  001A                     	;# 
  1503  001B                     	;# 
  1504  001C                     	;# 
  1505  001D                     	;# 
  1506  001E                     	;# 
  1507  001F                     	;# 
  1508  008C                     	;# 
  1509  008D                     	;# 
  1510  008E                     	;# 
  1511  0090                     	;# 
  1512  0091                     	;# 
  1513  0092                     	;# 
  1514  0093                     	;# 
  1515  0094                     	;# 
  1516  0097                     	;# 
  1517  009B                     	;# 
  1518  009B                     	;# 
  1519  009C                     	;# 
  1520  009D                     	;# 
  1521  009E                     	;# 
  1522  009F                     	;# 
  1523  010C                     	;# 
  1524  010D                     	;# 
  1525  010E                     	;# 
  1526  0111                     	;# 
  1527  0112                     	;# 
  1528  0113                     	;# 
  1529  0114                     	;# 
  1530  0115                     	;# 
  1531  0116                     	;# 
  1532  0117                     	;# 
  1533  0118                     	;# 
  1534  0119                     	;# 
  1535  018C                     	;# 
  1536  018D                     	;# 
  1537  018E                     	;# 
  1538  0197                     	;# 
  1539  0199                     	;# 
  1540  0199                     	;# 
  1541  0199                     	;# 
  1542  019A                     	;# 
  1543  019A                     	;# 
  1544  019A                     	;# 
  1545  019B                     	;# 
  1546  019B                     	;# 
  1547  019B                     	;# 
  1548  019B                     	;# 
  1549  019B                     	;# 
  1550  019C                     	;# 
  1551  019C                     	;# 
  1552  019C                     	;# 
  1553  019D                     	;# 
  1554  019D                     	;# 
  1555  019D                     	;# 
  1556  019E                     	;# 
  1557  019E                     	;# 
  1558  019E                     	;# 
  1559  019F                     	;# 
  1560  019F                     	;# 
  1561  019F                     	;# 
  1562  019F                     	;# 
  1563  019F                     	;# 
  1564  020C                     	;# 
  1565  020D                     	;# 
  1566  020E                     	;# 
  1567  0211                     	;# 
  1568  0211                     	;# 
  1569  0212                     	;# 
  1570  0212                     	;# 
  1571  0213                     	;# 
  1572  0213                     	;# 
  1573  0214                     	;# 
  1574  0214                     	;# 
  1575  0215                     	;# 
  1576  0215                     	;# 
  1577  0215                     	;# 
  1578  0215                     	;# 
  1579  0216                     	;# 
  1580  0216                     	;# 
  1581  0217                     	;# 
  1582  0217                     	;# 
  1583  0219                     	;# 
  1584  021A                     	;# 
  1585  021B                     	;# 
  1586  021C                     	;# 
  1587  021D                     	;# 
  1588  021D                     	;# 
  1589  021E                     	;# 
  1590  021F                     	;# 
  1591  028C                     	;# 
  1592  028D                     	;# 
  1593  028E                     	;# 
  1594  0291                     	;# 
  1595  0291                     	;# 
  1596  0292                     	;# 
  1597  0293                     	;# 
  1598  0294                     	;# 
  1599  0295                     	;# 
  1600  0295                     	;# 
  1601  0296                     	;# 
  1602  0297                     	;# 
  1603  0298                     	;# 
  1604  029F                     	;# 
  1605  030C                     	;# 
  1606  030D                     	;# 
  1607  030E                     	;# 
  1608  0311                     	;# 
  1609  0311                     	;# 
  1610  0312                     	;# 
  1611  0313                     	;# 
  1612  0314                     	;# 
  1613  0315                     	;# 
  1614  0315                     	;# 
  1615  0316                     	;# 
  1616  0317                     	;# 
  1617  0318                     	;# 
  1618  038C                     	;# 
  1619  038D                     	;# 
  1620  038E                     	;# 
  1621  0391                     	;# 
  1622  0392                     	;# 
  1623  0393                     	;# 
  1624  0394                     	;# 
  1625  0395                     	;# 
  1626  0396                     	;# 
  1627  0397                     	;# 
  1628  0398                     	;# 
  1629  0399                     	;# 
  1630  039A                     	;# 
  1631  039C                     	;# 
  1632  039D                     	;# 
  1633  039E                     	;# 
  1634  039F                     	;# 
  1635  0411                     	;# 
  1636  0411                     	;# 
  1637  0412                     	;# 
  1638  0413                     	;# 
  1639  0414                     	;# 
  1640  0415                     	;# 
  1641  0416                     	;# 
  1642  0417                     	;# 
  1643  0418                     	;# 
  1644  0418                     	;# 
  1645  0419                     	;# 
  1646  041A                     	;# 
  1647  041B                     	;# 
  1648  041C                     	;# 
  1649  041D                     	;# 
  1650  041E                     	;# 
  1651  041F                     	;# 
  1652  0498                     	;# 
  1653  0498                     	;# 
  1654  0499                     	;# 
  1655  049A                     	;# 
  1656  049B                     	;# 
  1657  049B                     	;# 
  1658  049C                     	;# 
  1659  049D                     	;# 
  1660  049E                     	;# 
  1661  049F                     	;# 
  1662  0617                     	;# 
  1663  0618                     	;# 
  1664  0619                     	;# 
  1665  0619                     	;# 
  1666  061A                     	;# 
  1667  061B                     	;# 
  1668  061C                     	;# 
  1669  061C                     	;# 
  1670  061F                     	;# 
  1671  0691                     	;# 
  1672  0692                     	;# 
  1673  0693                     	;# 
  1674  0694                     	;# 
  1675  0695                     	;# 
  1676  0696                     	;# 
  1677  0697                     	;# 
  1678  0698                     	;# 
  1679  0699                     	;# 
  1680  0711                     	;# 
  1681  0712                     	;# 
  1682  0713                     	;# 
  1683  0714                     	;# 
  1684  0715                     	;# 
  1685  0716                     	;# 
  1686  0717                     	;# 
  1687  0718                     	;# 
  1688  0719                     	;# 
  1689  0891                     	;# 
  1690  0891                     	;# 
  1691  0891                     	;# 
  1692  0891                     	;# 
  1693  0891                     	;# 
  1694  0891                     	;# 
  1695  0892                     	;# 
  1696  0892                     	;# 
  1697  0892                     	;# 
  1698  0893                     	;# 
  1699  0893                     	;# 
  1700  0893                     	;# 
  1701  0893                     	;# 
  1702  0893                     	;# 
  1703  0893                     	;# 
  1704  0894                     	;# 
  1705  0894                     	;# 
  1706  0894                     	;# 
  1707  0895                     	;# 
  1708  0895                     	;# 
  1709  0895                     	;# 
  1710  0896                     	;# 
  1711  0896                     	;# 
  1712  0896                     	;# 
  1713  089B                     	;# 
  1714  0911                     	;# 
  1715  0912                     	;# 
  1716  0913                     	;# 
  1717  0914                     	;# 
  1718  0915                     	;# 
  1719  0916                     	;# 
  1720  0918                     	;# 
  1721  0919                     	;# 
  1722  091A                     	;# 
  1723  091B                     	;# 
  1724  091C                     	;# 
  1725  091D                     	;# 
  1726  091E                     	;# 
  1727  091F                     	;# 
  1728  0E0F                     	;# 
  1729  0E10                     	;# 
  1730  0E11                     	;# 
  1731  0E12                     	;# 
  1732  0E13                     	;# 
  1733  0E14                     	;# 
  1734  0E15                     	;# 
  1735  0E16                     	;# 
  1736  0E17                     	;# 
  1737  0E18                     	;# 
  1738  0E19                     	;# 
  1739  0E1A                     	;# 
  1740  0E1B                     	;# 
  1741  0E1C                     	;# 
  1742  0E1D                     	;# 
  1743  0E1E                     	;# 
  1744  0E1F                     	;# 
  1745  0E20                     	;# 
  1746  0E21                     	;# 
  1747  0E22                     	;# 
  1748  0E24                     	;# 
  1749  0E25                     	;# 
  1750  0E28                     	;# 
  1751  0E29                     	;# 
  1752  0E2A                     	;# 
  1753  0E2B                     	;# 
  1754  0E2C                     	;# 
  1755  0E2D                     	;# 
  1756  0E2E                     	;# 
  1757  0E2F                     	;# 
  1758  0E90                     	;# 
  1759  0E91                     	;# 
  1760  0E92                     	;# 
  1761  0E94                     	;# 
  1762  0E95                     	;# 
  1763  0E9C                     	;# 
  1764  0E9D                     	;# 
  1765  0E9E                     	;# 
  1766  0E9F                     	;# 
  1767  0EA0                     	;# 
  1768  0EA1                     	;# 
  1769  0EA2                     	;# 
  1770  0EA3                     	;# 
  1771  0EA4                     	;# 
  1772  0EA5                     	;# 
  1773  0EA6                     	;# 
  1774  0EA7                     	;# 
  1775  0F0F                     	;# 
  1776  0F10                     	;# 
  1777  0F11                     	;# 
  1778  0F12                     	;# 
  1779  0F13                     	;# 
  1780  0F14                     	;# 
  1781  0F15                     	;# 
  1782  0F16                     	;# 
  1783  0F17                     	;# 
  1784  0F18                     	;# 
  1785  0F19                     	;# 
  1786  0F1A                     	;# 
  1787  0F1B                     	;# 
  1788  0F1C                     	;# 
  1789  0F1D                     	;# 
  1790  0F1E                     	;# 
  1791  0F1F                     	;# 
  1792  0F20                     	;# 
  1793  0F21                     	;# 
  1794  0F22                     	;# 
  1795  0F23                     	;# 
  1796  0F24                     	;# 
  1797  0F25                     	;# 
  1798  0F26                     	;# 
  1799  0F27                     	;# 
  1800  0F28                     	;# 
  1801  0F29                     	;# 
  1802  0F2A                     	;# 
  1803  0F2B                     	;# 
  1804  0F2C                     	;# 
  1805  0F2D                     	;# 
  1806  0F2E                     	;# 
  1807  0F2F                     	;# 
  1808  0F30                     	;# 
  1809  0F31                     	;# 
  1810  0F32                     	;# 
  1811  0F33                     	;# 
  1812  0F34                     	;# 
  1813  0F35                     	;# 
  1814  0F36                     	;# 
  1815  0F37                     	;# 
  1816  0FE4                     	;# 
  1817  0FE5                     	;# 
  1818  0FE6                     	;# 
  1819  0FE7                     	;# 
  1820  0FE8                     	;# 
  1821  0FE9                     	;# 
  1822  0FEA                     	;# 
  1823  0FEB                     	;# 
  1824  0FED                     	;# 
  1825  0FEE                     	;# 
  1826  0FEF                     	;# 
  1827                           
  1828                           	psect	idataCOMMON
  1829  0670                     __pidataCOMMON:
  1830                           
  1831                           ;initializer for _red
  1832  0670  34FF               	retlw	255
  1833                           
  1834                           	psect	idataBANK0
  1835  066F                     __pidataBANK0:
  1836                           
  1837                           ;initializer for _step
  1838  066F  3401               	retlw	1
  1839                           
  1840                           	psect	stringtext1
  1841  0800                     __pstringtext1:
  1842  0800                     _NumberOfLEDs:
  1843  0800  343C               	retlw	60
  1844  0801  3400               	retlw	0
  1845  0802                     __end_of_NumberOfLEDs:
  1846  005F                     _GIE	set	95
  1847  008E                     _TRISC	set	142
  1848  008D                     _TRISB	set	141
  1849  008C                     _TRISA	set	140
  1850  0097                     _WDTCON	set	151
  1851  010E                     _LATC	set	270
  1852  010D                     _LATB	set	269
  1853  010C                     _LATA	set	268
  1854  018C                     _ANSELA	set	396
  1855  018D                     _ANSELB	set	397
  1856  018E                     _ANSELC	set	398
  1857  0214                     _SSP1STATbits	set	532
  1858  0211                     _SSP1BUF	set	529
  1859  0215                     _SSP1CON1bits	set	533
  1860  0212                     _SSP1ADD	set	530
  1861  0215                     _SSP1CON1	set	533
  1862  0214                     _SSP1STAT	set	532
  1863  020E                     _WPUC	set	526
  1864  020C                     _WPUA	set	524
  1865  020D                     _WPUB	set	525
  1866  028E                     _ODCONC	set	654
  1867  028D                     _ODCONB	set	653
  1868  028C                     _ODCONA	set	652
  1869  091E                     _OSCTUNE	set	2334
  1870  091F                     _OSCFRQ	set	2335
  1871  091D                     _OSCEN	set	2333
  1872  091B                     _OSCCON3	set	2331
  1873  0919                     _OSCCON1	set	2329
  1874  0E20                     _SSP1CLKPPSbits	set	3616
  1875  0E21                     _SSP1DATPPSbits	set	3617
  1876  0E0F                     _PPSLOCKbits	set	3599
  1877  0E0F                     _PPSLOCK	set	3599
  1878  0E9E                     _RB6PPSbits	set	3742
  1879  0E9C                     _RB4PPSbits	set	3740
  1880                           
  1881                           	psect	cinit
  1882  07F0                     start_initialization:	
  1883                           ; #config settings
  1884                           
  1885  07F0                     __initialization:
  1886                           
  1887                           ; Initialize objects allocated to COMMON
  1888  07F0  3186  2670  3187   	fcall	__pidataCOMMON	;fetch initializer
  1889  07F3  00FD               	movwf	__pdataCOMMON& (0+127)
  1890                           
  1891                           ; Initialize objects allocated to BANK0
  1892  07F4  3186  266F  3187   	fcall	__pidataBANK0	;fetch initializer
  1893  07F7  00A1               	movwf	__pdataBANK0& (0+127)
  1894                           
  1895                           ; Clear objects allocated to COMMON
  1896  07F8  01F9               	clrf	__pbssCOMMON& (0+127)
  1897  07F9  01FA               	clrf	(__pbssCOMMON+1)& (0+127)
  1898  07FA  01FB               	clrf	(__pbssCOMMON+2)& (0+127)
  1899  07FB  01FC               	clrf	(__pbssCOMMON+3)& (0+127)
  1900                           
  1901                           ; Clear objects allocated to BANK0
  1902  07FC  01A0               	clrf	__pbssBANK0& (0+127)
  1903  07FD                     end_of_initialization:	
  1904                           ;End of C runtime variable initialization code
  1905                           
  1906  07FD                     __end_of__initialization:
  1907  07FD  0020               	movlb	0
  1908  07FE  3187  2F1E         	ljmp	_main	;jump to C main() function
  1909                           
  1910                           	psect	bssCOMMON
  1911  0079                     __pbssCOMMON:
  1912  0079                     _led_run:
  1913  0079                     	ds	1
  1914  007A                     _change_color:
  1915  007A                     	ds	1
  1916  007B                     _green:
  1917  007B                     	ds	1
  1918  007C                     _blue:
  1919  007C                     	ds	1
  1920                           
  1921                           	psect	dataCOMMON
  1922  007D                     __pdataCOMMON:
  1923  007D                     _red:
  1924  007D                     	ds	1
  1925                           
  1926                           	psect	bssBANK0
  1927  0020                     __pbssBANK0:
  1928  0020                     _direction:
  1929  0020                     	ds	1
  1930                           
  1931                           	psect	dataBANK0
  1932  0021                     __pdataBANK0:
  1933  0021                     _step:
  1934  0021                     	ds	1
  1935                           
  1936                           	psect	cstackCOMMON
  1937  0070                     __pcstackCOMMON:
  1938  0070                     ?_PIN_MANAGER_Initialize:
  1939  0070                     ??_PIN_MANAGER_Initialize:	
  1940                           ; 1 bytes @ 0x0
  1941                           
  1942  0070                     ?_OSCILLATOR_Initialize:	
  1943                           ; 1 bytes @ 0x0
  1944                           
  1945  0070                     ??_OSCILLATOR_Initialize:	
  1946                           ; 1 bytes @ 0x0
  1947                           
  1948  0070                     ?_WDT_Initialize:	
  1949                           ; 1 bytes @ 0x0
  1950                           
  1951  0070                     ??_WDT_Initialize:	
  1952                           ; 1 bytes @ 0x0
  1953                           
  1954  0070                     ?_SPI1_Initialize:	
  1955                           ; 1 bytes @ 0x0
  1956                           
  1957  0070                     ??_SPI1_Initialize:	
  1958                           ; 1 bytes @ 0x0
  1959                           
  1960  0070                     ?_SYSTEM_Initialize:	
  1961                           ; 1 bytes @ 0x0
  1962                           
  1963  0070                     ?_SPI1_Exchange8bit:	
  1964                           ; 1 bytes @ 0x0
  1965                           
  1966  0070                     ??_SPI1_Exchange8bit:	
  1967                           ; 1 bytes @ 0x0
  1968                           
  1969  0070                     ?_Send_LED_StartFrame:	
  1970                           ; 1 bytes @ 0x0
  1971                           
  1972  0070                     ?_Send_LED_EndFrame:	
  1973                           ; 1 bytes @ 0x0
  1974                           
  1975  0070                     ?_main:	
  1976                           ; 1 bytes @ 0x0
  1977                           
  1978  0070                     PIN_MANAGER_Initialize@state:	
  1979                           ; 1 bytes @ 0x0
  1980                           
  1981  0070                     SPI1_Exchange8bit@data:	
  1982                           ; 1 bytes @ 0x0
  1983                           
  1984                           
  1985                           ; 1 bytes @ 0x0
  1986  0070                     	ds	1
  1987  0071                     ??_SYSTEM_Initialize:
  1988  0071                     ?_Send_LED_Frame:	
  1989                           ; 1 bytes @ 0x1
  1990                           
  1991  0071                     ??_Send_LED_StartFrame:	
  1992                           ; 1 bytes @ 0x1
  1993                           
  1994  0071                     ??_Send_LED_EndFrame:	
  1995                           ; 1 bytes @ 0x1
  1996                           
  1997  0071                     Send_LED_Frame@blue:	
  1998                           ; 1 bytes @ 0x1
  1999                           
  2000                           
  2001                           ; 1 bytes @ 0x1
  2002  0071                     	ds	1
  2003  0072                     Send_LED_Frame@green:
  2004  0072                     Send_LED_StartFrame@i:	
  2005                           ; 1 bytes @ 0x2
  2006                           
  2007  0072                     Send_LED_EndFrame@i:	
  2008                           ; 2 bytes @ 0x2
  2009                           
  2010                           
  2011                           ; 2 bytes @ 0x2
  2012  0072                     	ds	1
  2013  0073                     Send_LED_Frame@red:
  2014                           
  2015                           ; 1 bytes @ 0x3
  2016  0073                     	ds	1
  2017  0074                     ??_Send_LED_Frame:
  2018  0074                     Send_LED_Frame@intensity:	
  2019                           ; 1 bytes @ 0x4
  2020                           
  2021                           
  2022                           ; 1 bytes @ 0x4
  2023  0074                     	ds	1
  2024  0075                     ??_main:
  2025                           
  2026                           ; 1 bytes @ 0x5
  2027  0075                     	ds	3
  2028  0078                     main@led:
  2029                           
  2030                           ; 1 bytes @ 0x8
  2031  0078                     	ds	1
  2032                           
  2033                           	psect	maintext
  2034  071E                     __pmaintext:	
  2035 ;;
  2036 ;;Main: autosize = 0, tempsize = 3, incstack = 0, save=0
  2037 ;;
  2038 ;; *************** function _main *****************
  2039 ;; Defined at:
  2040 ;;		line 85 in file "main.c"
  2041 ;; Parameters:    Size  Location     Type
  2042 ;;		None
  2043 ;; Auto vars:     Size  Location     Type
  2044 ;;  led             1    8[COMMON] unsigned char 
  2045 ;; Return value:  Size  Location     Type
  2046 ;;                  1    wreg      void 
  2047 ;; Registers used:
  2048 ;;		wreg, fsr0l, fsr0h, status,2, status,0, pclath, cstack
  2049 ;; Tracked objects:
  2050 ;;		On entry : B1F/0
  2051 ;;		On exit  : 0/0
  2052 ;;		Unchanged: 0/0
  2053 ;; Data sizes:     COMMON   BANK0   BANK1   BANK2   BANK3   BANK4   BANK5   BANK6   BANK7   BANK8   BANK9  BANK10  BANK1
      +1  BANK12
  2054 ;;      Params:         0       0       0       0       0       0       0       0       0       0       0       0       
      +0       0
  2055 ;;      Locals:         1       0       0       0       0       0       0       0       0       0       0       0       
      +0       0
  2056 ;;      Temps:          3       0       0       0       0       0       0       0       0       0       0       0       
      +0       0
  2057 ;;      Totals:         4       0       0       0       0       0       0       0       0       0       0       0       
      +0       0
  2058 ;;Total ram usage:        4 bytes
  2059 ;; Hardware stack levels required when called: 2
  2060 ;; This function calls:
  2061 ;;		_SYSTEM_Initialize
  2062 ;;		_Send_LED_EndFrame
  2063 ;;		_Send_LED_Frame
  2064 ;;		_Send_LED_StartFrame
  2065 ;; This function is called by:
  2066 ;;		Startup code after reset
  2067 ;; This function uses a non-reentrant model
  2068 ;;
  2069                           
  2070  071E                     _main:	
  2071                           ;psect for function _main
  2072                           
  2073  071E                     l1163:	
  2074                           ;incstack = 0
  2075                           ; Regs used in _main: [wreg-fsr0h+status,2+status,0+pclath+cstack]
  2076                           
  2077                           
  2078                           ;main.c: 87:     SYSTEM_Initialize();
  2079  071E  3186  268E  3187   	fcall	_SYSTEM_Initialize
  2080  0721  2F3A               	goto	l1177
  2081  0722                     l1165:
  2082  0722  303B               	movlw	59
  2083  0723  0279               	subwf	_led_run,w
  2084  0724  1803               	skipnc
  2085  0725  2F27               	goto	u291
  2086  0726  2F28               	goto	u290
  2087  0727                     u291:
  2088  0727  2F2D               	goto	l167
  2089  0728                     u290:
  2090  0728                     l1167:
  2091                           
  2092                           ;main.c: 108:                     led_run++;
  2093  0728  3001               	movlw	1
  2094  0729  00F5               	movwf	??_main
  2095  072A  0875               	movf	??_main,w
  2096  072B  07F9               	addwf	_led_run,f
  2097                           
  2098                           ;main.c: 109:                 } else {
  2099  072C  2F9A               	goto	l1215
  2100  072D                     l167:
  2101                           
  2102                           ;main.c: 110:                     direction = DOWN;
  2103  072D  01A0               	clrf	_direction
  2104  072E  0AA0               	incf	_direction,f
  2105  072F  2F9A               	goto	l1215
  2106  0730                     l1169:
  2107  0730  0879               	movf	_led_run,w
  2108  0731  1903               	btfsc	3,2
  2109  0732  2F34               	goto	u301
  2110  0733  2F35               	goto	u300
  2111  0734                     u301:
  2112  0734  2F38               	goto	l1173
  2113  0735                     u300:
  2114  0735                     l1171:
  2115                           
  2116                           ;main.c: 114:                     led_run--;
  2117  0735  3001               	movlw	1
  2118  0736  02F9               	subwf	_led_run,f
  2119                           
  2120                           ;main.c: 115:                 } else {
  2121  0737  2F9A               	goto	l1215
  2122  0738                     l1173:
  2123                           
  2124                           ;main.c: 116:                     direction = UP;
  2125  0738  01A0               	clrf	_direction
  2126  0739  2F9A               	goto	l1215
  2127  073A                     l1177:
  2128  073A  0020               	movlb	0	; select bank0
  2129  073B  0820               	movf	_direction,w
  2130  073C  00F5               	movwf	??_main
  2131  073D  01F6               	clrf	??_main+1
  2132                           
  2133                           ; Switch on 2 bytes has been partitioned into a top level switch of size 1, and 1 sub-sw
      +                          itches
  2134                           ; Switch size 1, requested type "simple"
  2135                           ; Number of cases is 1, Range of values is 0 to 0
  2136                           ; switch strategies available:
  2137                           ; Name         Instructions Cycles
  2138                           ; simple_byte            4     3 (average)
  2139                           ; direct_byte            8     6 (fixed)
  2140                           ; jumptable            260     6 (fixed)
  2141                           ;	Chosen strategy is simple_byte
  2142  073E  0876               	movf	??_main+1,w
  2143  073F  3A00               	xorlw	0	; case 0
  2144  0740  1903               	skipnz
  2145  0741  2F43               	goto	l1335
  2146  0742  2F9A               	goto	l1215
  2147  0743                     l1335:
  2148                           
  2149                           ; Switch size 1, requested type "simple"
  2150                           ; Number of cases is 2, Range of values is 0 to 1
  2151                           ; switch strategies available:
  2152                           ; Name         Instructions Cycles
  2153                           ; simple_byte            7     4 (average)
  2154                           ; direct_byte           10     6 (fixed)
  2155                           ; jumptable            260     6 (fixed)
  2156                           ;	Chosen strategy is simple_byte
  2157  0743  0875               	movf	??_main,w
  2158  0744  3A00               	xorlw	0	; case 0
  2159  0745  1903               	skipnz
  2160  0746  2F22               	goto	l1165
  2161  0747  3A01               	xorlw	1	; case 1
  2162  0748  1903               	skipnz
  2163  0749  2F30               	goto	l1169
  2164  074A  2F9A               	goto	l1215
  2165  074B                     l1179:
  2166  074B  0A7B               	incf	_green,w
  2167  074C  1903               	btfsc	3,2
  2168  074D  2F4F               	goto	u311
  2169  074E  2F50               	goto	u310
  2170  074F                     u311:
  2171  074F  2F55               	goto	l175
  2172  0750                     u310:
  2173  0750                     l1181:
  2174                           
  2175                           ;main.c: 123:                     green += step;
  2176  0750  3001               	movlw	1
  2177  0751  00F5               	movwf	??_main
  2178  0752  0875               	movf	??_main,w
  2179  0753  07FB               	addwf	_green,f
  2180                           
  2181                           ;main.c: 124:                 } else {
  2182  0754  2FB6               	goto	l1217
  2183  0755                     l175:
  2184                           
  2185                           ;main.c: 125:                     change_color = RED_DOWN;
  2186  0755  01FA               	clrf	_change_color
  2187  0756  0AFA               	incf	_change_color,f
  2188  0757  2FB6               	goto	l1217
  2189  0758                     l1183:
  2190  0758  087D               	movf	_red,w
  2191  0759  1903               	btfsc	3,2
  2192  075A  2F5C               	goto	u321
  2193  075B  2F5D               	goto	u320
  2194  075C                     u321:
  2195  075C  2F60               	goto	l1187
  2196  075D                     u320:
  2197  075D                     l1185:
  2198                           
  2199                           ;main.c: 129:                     red -= step;
  2200  075D  3001               	movlw	1
  2201  075E  02FD               	subwf	_red,f
  2202                           
  2203                           ;main.c: 130:                 } else {
  2204  075F  2FB6               	goto	l1217
  2205  0760                     l1187:
  2206                           
  2207                           ;main.c: 131:                     change_color = BLUE_UP;
  2208  0760  3002               	movlw	2
  2209  0761  00F5               	movwf	??_main
  2210  0762  0875               	movf	??_main,w
  2211  0763  00FA               	movwf	_change_color
  2212  0764  2FB6               	goto	l1217
  2213  0765                     l1189:
  2214  0765  0A7C               	incf	_blue,w
  2215  0766  1903               	btfsc	3,2
  2216  0767  2F69               	goto	u331
  2217  0768  2F6A               	goto	u330
  2218  0769                     u331:
  2219  0769  2F6F               	goto	l1193
  2220  076A                     u330:
  2221  076A                     l1191:
  2222                           
  2223                           ;main.c: 135:                     blue += step;
  2224  076A  3001               	movlw	1
  2225  076B  00F5               	movwf	??_main
  2226  076C  0875               	movf	??_main,w
  2227  076D  07FC               	addwf	_blue,f
  2228                           
  2229                           ;main.c: 136:                 } else {
  2230  076E  2FB6               	goto	l1217
  2231  076F                     l1193:
  2232                           
  2233                           ;main.c: 137:                     change_color = GREEN_DOWN;
  2234  076F  3003               	movlw	3
  2235  0770  00F5               	movwf	??_main
  2236  0771  0875               	movf	??_main,w
  2237  0772  00FA               	movwf	_change_color
  2238  0773  2FB6               	goto	l1217
  2239  0774                     l1195:
  2240  0774  087B               	movf	_green,w
  2241  0775  1903               	btfsc	3,2
  2242  0776  2F78               	goto	u341
  2243  0777  2F79               	goto	u340
  2244  0778                     u341:
  2245  0778  2F7C               	goto	l1199
  2246  0779                     u340:
  2247  0779                     l1197:
  2248                           
  2249                           ;main.c: 141:                     green -= step;
  2250  0779  3001               	movlw	1
  2251  077A  02FB               	subwf	_green,f
  2252                           
  2253                           ;main.c: 142:                 } else {
  2254  077B  2FB6               	goto	l1217
  2255  077C                     l1199:
  2256                           
  2257                           ;main.c: 143:                     change_color = RED_UP;
  2258  077C  3004               	movlw	4
  2259  077D  00F5               	movwf	??_main
  2260  077E  0875               	movf	??_main,w
  2261  077F  00FA               	movwf	_change_color
  2262  0780  2FB6               	goto	l1217
  2263  0781                     l1201:
  2264  0781  0A7D               	incf	_red,w
  2265  0782  1903               	btfsc	3,2
  2266  0783  2F85               	goto	u351
  2267  0784  2F86               	goto	u350
  2268  0785                     u351:
  2269  0785  2F8B               	goto	l1205
  2270  0786                     u350:
  2271  0786                     l1203:
  2272                           
  2273                           ;main.c: 147:                     red += step;
  2274  0786  3001               	movlw	1
  2275  0787  00F5               	movwf	??_main
  2276  0788  0875               	movf	??_main,w
  2277  0789  07FD               	addwf	_red,f
  2278                           
  2279                           ;main.c: 148:                 } else {
  2280  078A  2FB6               	goto	l1217
  2281  078B                     l1205:
  2282                           
  2283                           ;main.c: 149:                     change_color = BLUE_DOWN;
  2284  078B  3005               	movlw	5
  2285  078C  00F5               	movwf	??_main
  2286  078D  0875               	movf	??_main,w
  2287  078E  00FA               	movwf	_change_color
  2288  078F  2FB6               	goto	l1217
  2289  0790                     l1207:
  2290  0790  087C               	movf	_blue,w
  2291  0791  1903               	btfsc	3,2
  2292  0792  2F94               	goto	u361
  2293  0793  2F95               	goto	u360
  2294  0794                     u361:
  2295  0794  2F98               	goto	l1211
  2296  0795                     u360:
  2297  0795                     l1209:
  2298                           
  2299                           ;main.c: 153:                     blue -= step;
  2300  0795  3001               	movlw	1
  2301  0796  02FC               	subwf	_blue,f
  2302                           
  2303                           ;main.c: 154:                 } else {
  2304  0797  2FB6               	goto	l1217
  2305  0798                     l1211:
  2306                           
  2307                           ;main.c: 155:                     change_color = GREEN_UP;
  2308  0798  01FA               	clrf	_change_color
  2309  0799  2FB6               	goto	l1217
  2310  079A                     l1215:
  2311  079A  087A               	movf	_change_color,w
  2312  079B  00F5               	movwf	??_main
  2313  079C  01F6               	clrf	??_main+1
  2314                           
  2315                           ; Switch on 2 bytes has been partitioned into a top level switch of size 1, and 1 sub-sw
      +                          itches
  2316                           ; Switch size 1, requested type "simple"
  2317                           ; Number of cases is 1, Range of values is 0 to 0
  2318                           ; switch strategies available:
  2319                           ; Name         Instructions Cycles
  2320                           ; simple_byte            4     3 (average)
  2321                           ; direct_byte            8     6 (fixed)
  2322                           ; jumptable            260     6 (fixed)
  2323                           ;	Chosen strategy is simple_byte
  2324  079D  0876               	movf	??_main+1,w
  2325  079E  3A00               	xorlw	0	; case 0
  2326  079F  1903               	skipnz
  2327  07A0  2FA2               	goto	l1337
  2328  07A1  2FB6               	goto	l1217
  2329  07A2                     l1337:
  2330                           
  2331                           ; Switch size 1, requested type "simple"
  2332                           ; Number of cases is 6, Range of values is 0 to 5
  2333                           ; switch strategies available:
  2334                           ; Name         Instructions Cycles
  2335                           ; direct_byte           18     6 (fixed)
  2336                           ; simple_byte           19    10 (average)
  2337                           ; jumptable            260     6 (fixed)
  2338                           ;	Chosen strategy is simple_byte
  2339  07A2  0875               	movf	??_main,w
  2340  07A3  3A00               	xorlw	0	; case 0
  2341  07A4  1903               	skipnz
  2342  07A5  2F4B               	goto	l1179
  2343  07A6  3A01               	xorlw	1	; case 1
  2344  07A7  1903               	skipnz
  2345  07A8  2F58               	goto	l1183
  2346  07A9  3A03               	xorlw	3	; case 2
  2347  07AA  1903               	skipnz
  2348  07AB  2F65               	goto	l1189
  2349  07AC  3A01               	xorlw	1	; case 3
  2350  07AD  1903               	skipnz
  2351  07AE  2F74               	goto	l1195
  2352  07AF  3A07               	xorlw	7	; case 4
  2353  07B0  1903               	skipnz
  2354  07B1  2F81               	goto	l1201
  2355  07B2  3A01               	xorlw	1	; case 5
  2356  07B3  1903               	skipnz
  2357  07B4  2F90               	goto	l1207
  2358  07B5  2FB6               	goto	l1217
  2359  07B6                     l1217:
  2360                           
  2361                           ;main.c: 161:         Send_LED_StartFrame();
  2362  07B6  3186  26C6  3187   	fcall	_Send_LED_StartFrame
  2363  07B9                     l1219:
  2364                           
  2365                           ;main.c: 162:         for (char led = 0; led < NumberOfLEDs; led++) {
  2366  07B9  01F8               	clrf	main@led
  2367  07BA                     l1225:
  2368                           
  2369                           ;main.c: 163:             if (led == led_run) {
  2370  07BA  0878               	movf	main@led,w
  2371  07BB  0679               	xorwf	_led_run,w
  2372  07BC  1D03               	skipz
  2373  07BD  2FBF               	goto	u371
  2374  07BE  2FC0               	goto	u370
  2375  07BF                     u371:
  2376  07BF  2FD1               	goto	l1229
  2377  07C0                     u370:
  2378  07C0                     l1227:
  2379                           
  2380                           ;main.c: 164:                 Send_LED_Frame(0x1F, blue, green, red);
  2381  07C0  087C               	movf	_blue,w
  2382  07C1  00F5               	movwf	??_main
  2383  07C2  0875               	movf	??_main,w
  2384  07C3  00F1               	movwf	Send_LED_Frame@blue
  2385  07C4  087B               	movf	_green,w
  2386  07C5  00F6               	movwf	??_main+1
  2387  07C6  0876               	movf	??_main+1,w
  2388  07C7  00F2               	movwf	Send_LED_Frame@green
  2389  07C8  087D               	movf	_red,w
  2390  07C9  00F7               	movwf	??_main+2
  2391  07CA  0877               	movf	??_main+2,w
  2392  07CB  00F3               	movwf	Send_LED_Frame@red
  2393  07CC  301F               	movlw	31
  2394  07CD  3186  269B  3187   	fcall	_Send_LED_Frame
  2395                           
  2396                           ;main.c: 165:             } else {
  2397  07D0  2FD8               	goto	l1231
  2398  07D1                     l1229:
  2399                           
  2400                           ;main.c: 166:                 Send_LED_Frame(0x00, 0x00, 0x00, 0x00);
  2401  07D1  01F1               	clrf	Send_LED_Frame@blue
  2402  07D2  01F2               	clrf	Send_LED_Frame@green
  2403  07D3  01F3               	clrf	Send_LED_Frame@red
  2404  07D4  3000               	movlw	0
  2405  07D5  3186  269B  3187   	fcall	_Send_LED_Frame
  2406  07D8                     l1231:
  2407                           
  2408                           ;main.c: 168:         }
  2409  07D8  3001               	movlw	1
  2410  07D9  00F5               	movwf	??_main
  2411  07DA  0875               	movf	??_main,w
  2412  07DB  07F8               	addwf	main@led,f
  2413  07DC                     l1233:
  2414  07DC  303C               	movlw	60
  2415  07DD  0278               	subwf	main@led,w
  2416  07DE  1C03               	skipc
  2417  07DF  2FE1               	goto	u381
  2418  07E0  2FE2               	goto	u380
  2419  07E1                     u381:
  2420  07E1  2FBA               	goto	l1225
  2421  07E2                     u380:
  2422  07E2                     l1235:
  2423                           
  2424                           ;main.c: 170:         Send_LED_EndFrame();
  2425  07E2  3186  26AE  3187   	fcall	_Send_LED_EndFrame
  2426  07E5                     l1237:
  2427                           
  2428                           ;main.c: 171:         _delay((unsigned long)((10)*(32000000/4000.0)));
  2429  07E5  3068               	movlw	104
  2430  07E6  00F5               	movwf	??_main
  2431  07E7  30E4               	movlw	228
  2432  07E8                     u397:
  2433  07E8  0B89               	decfsz	9,f
  2434  07E9  2FE8               	goto	u397
  2435  07EA  0BF5               	decfsz	??_main,f
  2436  07EB  2FE8               	goto	u397
  2437  07EC  3200               	nop2
  2438  07ED  2F3A               	goto	l1177
  2439  07EE  3180  2802         	ljmp	start
  2440  07F0                     __end_of_main:
  2441                           
  2442                           	psect	text1
  2443  06C6                     __ptext1:	
  2444 ;; *************** function _Send_LED_StartFrame *****************
  2445 ;; Defined at:
  2446 ;;		line 73 in file "main.c"
  2447 ;; Parameters:    Size  Location     Type
  2448 ;;		None
  2449 ;; Auto vars:     Size  Location     Type
  2450 ;;  i               2    2[COMMON] int 
  2451 ;; Return value:  Size  Location     Type
  2452 ;;                  1    wreg      void 
  2453 ;; Registers used:
  2454 ;;		wreg, status,2, status,0, pclath, cstack
  2455 ;; Tracked objects:
  2456 ;;		On entry : 0/0
  2457 ;;		On exit  : 0/0
  2458 ;;		Unchanged: 0/0
  2459 ;; Data sizes:     COMMON   BANK0   BANK1   BANK2   BANK3   BANK4   BANK5   BANK6   BANK7   BANK8   BANK9  BANK10  BANK1
      +1  BANK12
  2460 ;;      Params:         0       0       0       0       0       0       0       0       0       0       0       0       
      +0       0
  2461 ;;      Locals:         2       0       0       0       0       0       0       0       0       0       0       0       
      +0       0
  2462 ;;      Temps:          1       0       0       0       0       0       0       0       0       0       0       0       
      +0       0
  2463 ;;      Totals:         3       0       0       0       0       0       0       0       0       0       0       0       
      +0       0
  2464 ;;Total ram usage:        3 bytes
  2465 ;; Hardware stack levels used: 1
  2466 ;; Hardware stack levels required when called: 1
  2467 ;; This function calls:
  2468 ;;		_SPI1_Exchange8bit
  2469 ;; This function is called by:
  2470 ;;		_main
  2471 ;; This function uses a non-reentrant model
  2472 ;;
  2473                           
  2474  06C6                     _Send_LED_StartFrame:	
  2475                           ;psect for function _Send_LED_StartFrame
  2476                           
  2477  06C6                     l1111:	
  2478                           ;incstack = 0
  2479                           ; Regs used in _Send_LED_StartFrame: [wreg+status,2+status,0+pclath+cstack]
  2480                           
  2481                           
  2482                           ;main.c: 74:     for (int i = 0; i < 4; i++) {
  2483  06C6  01F2               	clrf	Send_LED_StartFrame@i
  2484  06C7  01F3               	clrf	Send_LED_StartFrame@i+1
  2485  06C8                     l1117:
  2486                           
  2487                           ;main.c: 75:         SPI1_Exchange8bit(0x00);
  2488  06C8  3000               	movlw	0
  2489  06C9  3186  2683  3186   	fcall	_SPI1_Exchange8bit
  2490  06CC                     l1119:
  2491                           
  2492                           ;main.c: 76:     }
  2493  06CC  3001               	movlw	1
  2494  06CD  07F2               	addwf	Send_LED_StartFrame@i,f
  2495  06CE  3000               	movlw	0
  2496  06CF  3DF3               	addwfc	Send_LED_StartFrame@i+1,f
  2497  06D0                     l1121:
  2498  06D0  0873               	movf	Send_LED_StartFrame@i+1,w
  2499  06D1  3A80               	xorlw	128
  2500  06D2  00F1               	movwf	??_Send_LED_StartFrame
  2501  06D3  3080               	movlw	128
  2502  06D4  0271               	subwf	??_Send_LED_StartFrame,w
  2503  06D5  1D03               	skipz
  2504  06D6  2ED9               	goto	u215
  2505  06D7  3004               	movlw	4
  2506  06D8  0272               	subwf	Send_LED_StartFrame@i,w
  2507  06D9                     u215:
  2508  06D9  1C03               	skipc
  2509  06DA  2EDC               	goto	u211
  2510  06DB  2EDD               	goto	u210
  2511  06DC                     u211:
  2512  06DC  2EC8               	goto	l1117
  2513  06DD                     u210:
  2514  06DD                     l154:
  2515  06DD  0008               	return
  2516  06DE                     __end_of_Send_LED_StartFrame:
  2517                           
  2518                           	psect	text2
  2519  069B                     __ptext2:	
  2520 ;; *************** function _Send_LED_Frame *****************
  2521 ;; Defined at:
  2522 ;;		line 66 in file "main.c"
  2523 ;; Parameters:    Size  Location     Type
  2524 ;;  intensity       1    wreg     unsigned char 
  2525 ;;  blue            1    1[COMMON] unsigned char 
  2526 ;;  green           1    2[COMMON] unsigned char 
  2527 ;;  red             1    3[COMMON] unsigned char 
  2528 ;; Auto vars:     Size  Location     Type
  2529 ;;  intensity       1    4[COMMON] unsigned char 
  2530 ;; Return value:  Size  Location     Type
  2531 ;;                  1    wreg      void 
  2532 ;; Registers used:
  2533 ;;		wreg, status,2, status,0, pclath, cstack
  2534 ;; Tracked objects:
  2535 ;;		On entry : 0/0
  2536 ;;		On exit  : 0/0
  2537 ;;		Unchanged: 0/0
  2538 ;; Data sizes:     COMMON   BANK0   BANK1   BANK2   BANK3   BANK4   BANK5   BANK6   BANK7   BANK8   BANK9  BANK10  BANK1
      +1  BANK12
  2539 ;;      Params:         3       0       0       0       0       0       0       0       0       0       0       0       
      +0       0
  2540 ;;      Locals:         1       0       0       0       0       0       0       0       0       0       0       0       
      +0       0
  2541 ;;      Temps:          0       0       0       0       0       0       0       0       0       0       0       0       
      +0       0
  2542 ;;      Totals:         4       0       0       0       0       0       0       0       0       0       0       0       
      +0       0
  2543 ;;Total ram usage:        4 bytes
  2544 ;; Hardware stack levels used: 1
  2545 ;; Hardware stack levels required when called: 1
  2546 ;; This function calls:
  2547 ;;		_SPI1_Exchange8bit
  2548 ;; This function is called by:
  2549 ;;		_main
  2550 ;; This function uses a non-reentrant model
  2551 ;;
  2552                           
  2553  069B                     _Send_LED_Frame:	
  2554                           ;psect for function _Send_LED_Frame
  2555                           
  2556                           
  2557                           ;incstack = 0
  2558                           ; Regs used in _Send_LED_Frame: [wreg+status,2+status,0+pclath+cstack]
  2559                           ;Send_LED_Frame@intensity stored from wreg
  2560  069B  00F4               	movwf	Send_LED_Frame@intensity
  2561  069C                     l1109:
  2562                           
  2563                           ;main.c: 67:     SPI1_Exchange8bit(0xE0 | intensity);
  2564  069C  0874               	movf	Send_LED_Frame@intensity,w
  2565  069D  38E0               	iorlw	224
  2566  069E  3186  2683  3186   	fcall	_SPI1_Exchange8bit
  2567                           
  2568                           ;main.c: 68:     SPI1_Exchange8bit(blue);
  2569  06A1  0871               	movf	Send_LED_Frame@blue,w
  2570  06A2  3186  2683  3186   	fcall	_SPI1_Exchange8bit
  2571                           
  2572                           ;main.c: 69:     SPI1_Exchange8bit(green);
  2573  06A5  0872               	movf	Send_LED_Frame@green,w
  2574  06A6  3186  2683  3186   	fcall	_SPI1_Exchange8bit
  2575                           
  2576                           ;main.c: 70:     SPI1_Exchange8bit(red);
  2577  06A9  0873               	movf	Send_LED_Frame@red,w
  2578  06AA  3186  2683  3186   	fcall	_SPI1_Exchange8bit
  2579  06AD                     l149:
  2580  06AD  0008               	return
  2581  06AE                     __end_of_Send_LED_Frame:
  2582                           
  2583                           	psect	text3
  2584  06AE                     __ptext3:	
  2585 ;; *************** function _Send_LED_EndFrame *****************
  2586 ;; Defined at:
  2587 ;;		line 79 in file "main.c"
  2588 ;; Parameters:    Size  Location     Type
  2589 ;;		None
  2590 ;; Auto vars:     Size  Location     Type
  2591 ;;  i               2    2[COMMON] int 
  2592 ;; Return value:  Size  Location     Type
  2593 ;;                  1    wreg      void 
  2594 ;; Registers used:
  2595 ;;		wreg, status,2, status,0, pclath, cstack
  2596 ;; Tracked objects:
  2597 ;;		On entry : 0/0
  2598 ;;		On exit  : 0/0
  2599 ;;		Unchanged: 0/0
  2600 ;; Data sizes:     COMMON   BANK0   BANK1   BANK2   BANK3   BANK4   BANK5   BANK6   BANK7   BANK8   BANK9  BANK10  BANK1
      +1  BANK12
  2601 ;;      Params:         0       0       0       0       0       0       0       0       0       0       0       0       
      +0       0
  2602 ;;      Locals:         2       0       0       0       0       0       0       0       0       0       0       0       
      +0       0
  2603 ;;      Temps:          1       0       0       0       0       0       0       0       0       0       0       0       
      +0       0
  2604 ;;      Totals:         3       0       0       0       0       0       0       0       0       0       0       0       
      +0       0
  2605 ;;Total ram usage:        3 bytes
  2606 ;; Hardware stack levels used: 1
  2607 ;; Hardware stack levels required when called: 1
  2608 ;; This function calls:
  2609 ;;		_SPI1_Exchange8bit
  2610 ;; This function is called by:
  2611 ;;		_main
  2612 ;; This function uses a non-reentrant model
  2613 ;;
  2614                           
  2615  06AE                     _Send_LED_EndFrame:	
  2616                           ;psect for function _Send_LED_EndFrame
  2617                           
  2618  06AE                     l1123:	
  2619                           ;incstack = 0
  2620                           ; Regs used in _Send_LED_EndFrame: [wreg+status,2+status,0+pclath+cstack]
  2621                           
  2622                           
  2623                           ;main.c: 80:     for (int i = 0; i < 4; i++) {
  2624  06AE  01F2               	clrf	Send_LED_EndFrame@i
  2625  06AF  01F3               	clrf	Send_LED_EndFrame@i+1
  2626  06B0                     l1129:
  2627                           
  2628                           ;main.c: 81:         SPI1_Exchange8bit(0xFF);
  2629  06B0  30FF               	movlw	255
  2630  06B1  3186  2683  3186   	fcall	_SPI1_Exchange8bit
  2631  06B4                     l1131:
  2632                           
  2633                           ;main.c: 82:     }
  2634  06B4  3001               	movlw	1
  2635  06B5  07F2               	addwf	Send_LED_EndFrame@i,f
  2636  06B6  3000               	movlw	0
  2637  06B7  3DF3               	addwfc	Send_LED_EndFrame@i+1,f
  2638  06B8                     l1133:
  2639  06B8  0873               	movf	Send_LED_EndFrame@i+1,w
  2640  06B9  3A80               	xorlw	128
  2641  06BA  00F1               	movwf	??_Send_LED_EndFrame
  2642  06BB  3080               	movlw	128
  2643  06BC  0271               	subwf	??_Send_LED_EndFrame,w
  2644  06BD  1D03               	skipz
  2645  06BE  2EC1               	goto	u225
  2646  06BF  3004               	movlw	4
  2647  06C0  0272               	subwf	Send_LED_EndFrame@i,w
  2648  06C1                     u225:
  2649  06C1  1C03               	skipc
  2650  06C2  2EC4               	goto	u221
  2651  06C3  2EC5               	goto	u220
  2652  06C4                     u221:
  2653  06C4  2EB0               	goto	l1129
  2654  06C5                     u220:
  2655  06C5                     l159:
  2656  06C5  0008               	return
  2657  06C6                     __end_of_Send_LED_EndFrame:
  2658                           
  2659                           	psect	text4
  2660  0683                     __ptext4:	
  2661 ;; *************** function _SPI1_Exchange8bit *****************
  2662 ;; Defined at:
  2663 ;;		line 77 in file "mcc_generated_files/spi1.c"
  2664 ;; Parameters:    Size  Location     Type
  2665 ;;  data            1    wreg     unsigned char 
  2666 ;; Auto vars:     Size  Location     Type
  2667 ;;  data            1    0[COMMON] unsigned char 
  2668 ;; Return value:  Size  Location     Type
  2669 ;;                  1    wreg      unsigned char 
  2670 ;; Registers used:
  2671 ;;		wreg
  2672 ;; Tracked objects:
  2673 ;;		On entry : 0/0
  2674 ;;		On exit  : 0/0
  2675 ;;		Unchanged: 0/0
  2676 ;; Data sizes:     COMMON   BANK0   BANK1   BANK2   BANK3   BANK4   BANK5   BANK6   BANK7   BANK8   BANK9  BANK10  BANK1
      +1  BANK12
  2677 ;;      Params:         0       0       0       0       0       0       0       0       0       0       0       0       
      +0       0
  2678 ;;      Locals:         1       0       0       0       0       0       0       0       0       0       0       0       
      +0       0
  2679 ;;      Temps:          0       0       0       0       0       0       0       0       0       0       0       0       
      +0       0
  2680 ;;      Totals:         1       0       0       0       0       0       0       0       0       0       0       0       
      +0       0
  2681 ;;Total ram usage:        1 bytes
  2682 ;; Hardware stack levels used: 1
  2683 ;; This function calls:
  2684 ;;		Nothing
  2685 ;; This function is called by:
  2686 ;;		_Send_LED_Frame
  2687 ;;		_Send_LED_StartFrame
  2688 ;;		_Send_LED_EndFrame
  2689 ;;		_SPI1_Exchange8bitBuffer
  2690 ;; This function uses a non-reentrant model
  2691 ;;
  2692                           
  2693  0683                     _SPI1_Exchange8bit:	
  2694                           ;psect for function _SPI1_Exchange8bit
  2695                           
  2696                           
  2697                           ;incstack = 0
  2698                           ; Regs used in _SPI1_Exchange8bit: [wreg]
  2699                           ;SPI1_Exchange8bit@data stored from wreg
  2700  0683  00F0               	movwf	SPI1_Exchange8bit@data
  2701  0684                     l1099:
  2702                           
  2703                           ;mcc_generated_files/spi1.c: 77: uint8_t SPI1_Exchange8bit(uint8_t data);mcc_generated_f
      +                          iles/spi1.c: 78: {;mcc_generated_files/spi1.c: 80:     SSP1CON1bits.WCOL = 0;
  2704  0684  0024               	movlb	4	; select bank4
  2705  0685  1395               	bcf	21,7	;volatile
  2706  0686                     l1101:
  2707                           
  2708                           ;mcc_generated_files/spi1.c: 82:     SSP1BUF = data;
  2709  0686  0870               	movf	SPI1_Exchange8bit@data,w
  2710  0687  0091               	movwf	17	;volatile
  2711  0688                     l97:	
  2712                           ;mcc_generated_files/spi1.c: 85:     {;mcc_generated_files/spi1.c: 86:     }
  2713                           
  2714                           
  2715                           ;mcc_generated_files/spi1.c: 84:     while(SSP1STATbits.BF == 0x0)
  2716  0688  1C14               	btfss	20,0	;volatile
  2717  0689  2E8B               	goto	u201
  2718  068A  2E8C               	goto	u200
  2719  068B                     u201:
  2720  068B  2E88               	goto	l97
  2721  068C                     u200:
  2722  068C                     l1103:
  2723                           
  2724                           ;mcc_generated_files/spi1.c: 88:     return (SSP1BUF);
  2725  068C  0811               	movf	17,w	;volatile
  2726  068D                     l100:
  2727  068D  0008               	return
  2728  068E                     __end_of_SPI1_Exchange8bit:
  2729                           
  2730                           	psect	text5
  2731  068E                     __ptext5:	
  2732 ;; *************** function _SYSTEM_Initialize *****************
  2733 ;; Defined at:
  2734 ;;		line 76 in file "mcc_generated_files/mcc.c"
  2735 ;; Parameters:    Size  Location     Type
  2736 ;;		None
  2737 ;; Auto vars:     Size  Location     Type
  2738 ;;		None
  2739 ;; Return value:  Size  Location     Type
  2740 ;;                  1    wreg      void 
  2741 ;; Registers used:
  2742 ;;		wreg, status,2, status,0, pclath, cstack
  2743 ;; Tracked objects:
  2744 ;;		On entry : 0/0
  2745 ;;		On exit  : 0/0
  2746 ;;		Unchanged: 0/0
  2747 ;; Data sizes:     COMMON   BANK0   BANK1   BANK2   BANK3   BANK4   BANK5   BANK6   BANK7   BANK8   BANK9  BANK10  BANK1
      +1  BANK12
  2748 ;;      Params:         0       0       0       0       0       0       0       0       0       0       0       0       
      +0       0
  2749 ;;      Locals:         0       0       0       0       0       0       0       0       0       0       0       0       
      +0       0
  2750 ;;      Temps:          0       0       0       0       0       0       0       0       0       0       0       0       
      +0       0
  2751 ;;      Totals:         0       0       0       0       0       0       0       0       0       0       0       0       
      +0       0
  2752 ;;Total ram usage:        0 bytes
  2753 ;; Hardware stack levels used: 1
  2754 ;; Hardware stack levels required when called: 1
  2755 ;; This function calls:
  2756 ;;		_OSCILLATOR_Initialize
  2757 ;;		_PIN_MANAGER_Initialize
  2758 ;;		_SPI1_Initialize
  2759 ;;		_WDT_Initialize
  2760 ;; This function is called by:
  2761 ;;		_main
  2762 ;; This function uses a non-reentrant model
  2763 ;;
  2764                           
  2765  068E                     _SYSTEM_Initialize:	
  2766                           ;psect for function _SYSTEM_Initialize
  2767                           
  2768  068E                     l1107:	
  2769                           ;incstack = 0
  2770                           ; Regs used in _SYSTEM_Initialize: [wreg+status,2+status,0+pclath+cstack]
  2771                           
  2772                           
  2773                           ;mcc_generated_files/mcc.c: 79:     PIN_MANAGER_Initialize();
  2774  068E  3186  26DE  3186   	fcall	_PIN_MANAGER_Initialize
  2775                           
  2776                           ;mcc_generated_files/mcc.c: 80:     OSCILLATOR_Initialize();
  2777  0691  3186  267B  3186   	fcall	_OSCILLATOR_Initialize
  2778                           
  2779                           ;mcc_generated_files/mcc.c: 81:     WDT_Initialize();
  2780  0694  3186  2671  3186   	fcall	_WDT_Initialize
  2781                           
  2782                           ;mcc_generated_files/mcc.c: 82:     SPI1_Initialize();
  2783  0697  3186  2675  3186   	fcall	_SPI1_Initialize
  2784  069A                     l23:
  2785  069A  0008               	return
  2786  069B                     __end_of_SYSTEM_Initialize:
  2787                           
  2788                           	psect	text6
  2789  0671                     __ptext6:	
  2790 ;; *************** function _WDT_Initialize *****************
  2791 ;; Defined at:
  2792 ;;		line 101 in file "mcc_generated_files/mcc.c"
  2793 ;; Parameters:    Size  Location     Type
  2794 ;;		None
  2795 ;; Auto vars:     Size  Location     Type
  2796 ;;		None
  2797 ;; Return value:  Size  Location     Type
  2798 ;;                  1    wreg      void 
  2799 ;; Registers used:
  2800 ;;		wreg
  2801 ;; Tracked objects:
  2802 ;;		On entry : 0/0
  2803 ;;		On exit  : 0/0
  2804 ;;		Unchanged: 0/0
  2805 ;; Data sizes:     COMMON   BANK0   BANK1   BANK2   BANK3   BANK4   BANK5   BANK6   BANK7   BANK8   BANK9  BANK10  BANK1
      +1  BANK12
  2806 ;;      Params:         0       0       0       0       0       0       0       0       0       0       0       0       
      +0       0
  2807 ;;      Locals:         0       0       0       0       0       0       0       0       0       0       0       0       
      +0       0
  2808 ;;      Temps:          0       0       0       0       0       0       0       0       0       0       0       0       
      +0       0
  2809 ;;      Totals:         0       0       0       0       0       0       0       0       0       0       0       0       
      +0       0
  2810 ;;Total ram usage:        0 bytes
  2811 ;; Hardware stack levels used: 1
  2812 ;; This function calls:
  2813 ;;		Nothing
  2814 ;; This function is called by:
  2815 ;;		_SYSTEM_Initialize
  2816 ;; This function uses a non-reentrant model
  2817 ;;
  2818                           
  2819  0671                     _WDT_Initialize:	
  2820                           ;psect for function _WDT_Initialize
  2821                           
  2822  0671                     l1091:	
  2823                           ;incstack = 0
  2824                           ; Regs used in _WDT_Initialize: [wreg]
  2825                           
  2826                           
  2827                           ;mcc_generated_files/mcc.c: 104:     WDTCON = 0x20;
  2828  0671  3020               	movlw	32
  2829  0672  0021               	movlb	1	; select bank1
  2830  0673  0097               	movwf	23	;volatile
  2831  0674                     l29:
  2832  0674  0008               	return
  2833  0675                     __end_of_WDT_Initialize:
  2834                           
  2835                           	psect	text7
  2836  0675                     __ptext7:	
  2837 ;; *************** function _SPI1_Initialize *****************
  2838 ;; Defined at:
  2839 ;;		line 63 in file "mcc_generated_files/spi1.c"
  2840 ;; Parameters:    Size  Location     Type
  2841 ;;		None
  2842 ;; Auto vars:     Size  Location     Type
  2843 ;;		None
  2844 ;; Return value:  Size  Location     Type
  2845 ;;                  1    wreg      void 
  2846 ;; Registers used:
  2847 ;;		wreg, status,2
  2848 ;; Tracked objects:
  2849 ;;		On entry : 0/0
  2850 ;;		On exit  : 0/0
  2851 ;;		Unchanged: 0/0
  2852 ;; Data sizes:     COMMON   BANK0   BANK1   BANK2   BANK3   BANK4   BANK5   BANK6   BANK7   BANK8   BANK9  BANK10  BANK1
      +1  BANK12
  2853 ;;      Params:         0       0       0       0       0       0       0       0       0       0       0       0       
      +0       0
  2854 ;;      Locals:         0       0       0       0       0       0       0       0       0       0       0       0       
      +0       0
  2855 ;;      Temps:          0       0       0       0       0       0       0       0       0       0       0       0       
      +0       0
  2856 ;;      Totals:         0       0       0       0       0       0       0       0       0       0       0       0       
      +0       0
  2857 ;;Total ram usage:        0 bytes
  2858 ;; Hardware stack levels used: 1
  2859 ;; This function calls:
  2860 ;;		Nothing
  2861 ;; This function is called by:
  2862 ;;		_SYSTEM_Initialize
  2863 ;; This function uses a non-reentrant model
  2864 ;;
  2865                           
  2866  0675                     _SPI1_Initialize:	
  2867                           ;psect for function _SPI1_Initialize
  2868                           
  2869  0675                     l1093:	
  2870                           ;incstack = 0
  2871                           ; Regs used in _SPI1_Initialize: [wreg+status,2]
  2872                           
  2873                           
  2874                           ;mcc_generated_files/spi1.c: 68:     SSP1STAT = 0x00;
  2875  0675  0024               	movlb	4	; select bank4
  2876  0676  0194               	clrf	20	;volatile
  2877  0677                     l1095:
  2878                           
  2879                           ;mcc_generated_files/spi1.c: 71:     SSP1CON1 = 0x20;
  2880  0677  3020               	movlw	32
  2881  0678  0095               	movwf	21	;volatile
  2882  0679                     l1097:
  2883                           
  2884                           ;mcc_generated_files/spi1.c: 74:     SSP1ADD = 0x00;
  2885  0679  0192               	clrf	18	;volatile
  2886  067A                     l94:
  2887  067A  0008               	return
  2888  067B                     __end_of_SPI1_Initialize:
  2889                           
  2890                           	psect	text8
  2891  06DE                     __ptext8:	
  2892 ;; *************** function _PIN_MANAGER_Initialize *****************
  2893 ;; Defined at:
  2894 ;;		line 51 in file "mcc_generated_files/pin_manager.c"
  2895 ;; Parameters:    Size  Location     Type
  2896 ;;		None
  2897 ;; Auto vars:     Size  Location     Type
  2898 ;;  state           1    0[COMMON] _Bool 
  2899 ;; Return value:  Size  Location     Type
  2900 ;;                  1    wreg      void 
  2901 ;; Registers used:
  2902 ;;		wreg, status,2, status,0
  2903 ;; Tracked objects:
  2904 ;;		On entry : 0/0
  2905 ;;		On exit  : 0/0
  2906 ;;		Unchanged: 0/0
  2907 ;; Data sizes:     COMMON   BANK0   BANK1   BANK2   BANK3   BANK4   BANK5   BANK6   BANK7   BANK8   BANK9  BANK10  BANK1
      +1  BANK12
  2908 ;;      Params:         0       0       0       0       0       0       0       0       0       0       0       0       
      +0       0
  2909 ;;      Locals:         1       0       0       0       0       0       0       0       0       0       0       0       
      +0       0
  2910 ;;      Temps:          0       0       0       0       0       0       0       0       0       0       0       0       
      +0       0
  2911 ;;      Totals:         1       0       0       0       0       0       0       0       0       0       0       0       
      +0       0
  2912 ;;Total ram usage:        1 bytes
  2913 ;; Hardware stack levels used: 1
  2914 ;; This function calls:
  2915 ;;		Nothing
  2916 ;; This function is called by:
  2917 ;;		_SYSTEM_Initialize
  2918 ;; This function uses a non-reentrant model
  2919 ;;
  2920                           
  2921  06DE                     _PIN_MANAGER_Initialize:	
  2922                           ;psect for function _PIN_MANAGER_Initialize
  2923                           
  2924  06DE                     l1053:	
  2925                           ;incstack = 0
  2926                           ; Regs used in _PIN_MANAGER_Initialize: [wreg+status,2+status,0]
  2927                           
  2928                           
  2929                           ;mcc_generated_files/pin_manager.c: 56:     LATA = 0x00;
  2930  06DE  0022               	movlb	2	; select bank2
  2931  06DF  018C               	clrf	12	;volatile
  2932                           
  2933                           ;mcc_generated_files/pin_manager.c: 57:     LATB = 0x00;
  2934  06E0  018D               	clrf	13	;volatile
  2935                           
  2936                           ;mcc_generated_files/pin_manager.c: 58:     LATC = 0x00;
  2937  06E1  018E               	clrf	14	;volatile
  2938  06E2                     l1055:
  2939                           
  2940                           ;mcc_generated_files/pin_manager.c: 63:     TRISA = 0x37;
  2941  06E2  3037               	movlw	55
  2942  06E3  0021               	movlb	1	; select bank1
  2943  06E4  008C               	movwf	12	;volatile
  2944  06E5                     l1057:
  2945                           
  2946                           ;mcc_generated_files/pin_manager.c: 64:     TRISB = 0xA0;
  2947  06E5  30A0               	movlw	160
  2948  06E6  008D               	movwf	13	;volatile
  2949  06E7                     l1059:
  2950                           
  2951                           ;mcc_generated_files/pin_manager.c: 65:     TRISC = 0xFF;
  2952  06E7  30FF               	movlw	255
  2953  06E8  008E               	movwf	14	;volatile
  2954  06E9                     l1061:
  2955                           
  2956                           ;mcc_generated_files/pin_manager.c: 70:     ANSELC = 0xFF;
  2957  06E9  30FF               	movlw	255
  2958  06EA  0023               	movlb	3	; select bank3
  2959  06EB  008E               	movwf	14	;volatile
  2960  06EC                     l1063:
  2961                           
  2962                           ;mcc_generated_files/pin_manager.c: 71:     ANSELB = 0xA0;
  2963  06EC  30A0               	movlw	160
  2964  06ED  008D               	movwf	13	;volatile
  2965  06EE                     l1065:
  2966                           
  2967                           ;mcc_generated_files/pin_manager.c: 72:     ANSELA = 0x36;
  2968  06EE  3036               	movlw	54
  2969  06EF  008C               	movwf	12	;volatile
  2970                           
  2971                           ;mcc_generated_files/pin_manager.c: 77:     WPUB = 0x00;
  2972  06F0  0024               	movlb	4	; select bank4
  2973  06F1  018D               	clrf	13	;volatile
  2974                           
  2975                           ;mcc_generated_files/pin_manager.c: 78:     WPUA = 0x00;
  2976  06F2  018C               	clrf	12	;volatile
  2977                           
  2978                           ;mcc_generated_files/pin_manager.c: 79:     WPUC = 0x00;
  2979  06F3  018E               	clrf	14	;volatile
  2980                           
  2981                           ;mcc_generated_files/pin_manager.c: 84:     ODCONA = 0x00;
  2982  06F4  0025               	movlb	5	; select bank5
  2983  06F5  018C               	clrf	12	;volatile
  2984                           
  2985                           ;mcc_generated_files/pin_manager.c: 85:     ODCONB = 0x00;
  2986  06F6  018D               	clrf	13	;volatile
  2987                           
  2988                           ;mcc_generated_files/pin_manager.c: 86:     ODCONC = 0x00;
  2989  06F7  018E               	clrf	14	;volatile
  2990  06F8                     l1067:
  2991                           
  2992                           ;mcc_generated_files/pin_manager.c: 93:     _Bool state = GIE;
  2993  06F8  3000               	movlw	0
  2994  06F9  1B8B               	btfsc	11,7	;volatile
  2995  06FA  3001               	movlw	1
  2996  06FB  00F0               	movwf	PIN_MANAGER_Initialize@state
  2997  06FC                     l1069:
  2998                           
  2999                           ;mcc_generated_files/pin_manager.c: 94:     GIE = 0;
  3000  06FC  138B               	bcf	11,7	;volatile
  3001                           
  3002                           ;mcc_generated_files/pin_manager.c: 95:     PPSLOCK = 0x55;
  3003  06FD  3055               	movlw	85
  3004  06FE  003C               	movlb	28	; select bank28
  3005  06FF  008F               	movwf	15	;volsfr
  3006                           
  3007                           ;mcc_generated_files/pin_manager.c: 96:     PPSLOCK = 0xAA;
  3008  0700  30AA               	movlw	170
  3009  0701  008F               	movwf	15	;volsfr
  3010  0702                     l1071:
  3011                           
  3012                           ;mcc_generated_files/pin_manager.c: 97:     PPSLOCKbits.PPSLOCKED = 0x00;
  3013  0702  100F               	bcf	15,0	;volsfr
  3014  0703                     l1073:
  3015                           
  3016                           ;mcc_generated_files/pin_manager.c: 99:     SSP1DATPPSbits.SSP1DATPPS = 0x00;
  3017  0703  30E0               	movlw	-32
  3018  0704  05A1               	andwf	33,f	;volatile
  3019  0705                     l1075:
  3020                           
  3021                           ;mcc_generated_files/pin_manager.c: 100:     SSP1CLKPPSbits.SSP1CLKPPS = 0x0E;
  3022  0705  0820               	movf	32,w	;volatile
  3023  0706  39E0               	andlw	-32
  3024  0707  380E               	iorlw	14
  3025  0708  00A0               	movwf	32	;volatile
  3026  0709                     l1077:
  3027                           
  3028                           ;mcc_generated_files/pin_manager.c: 101:     RB4PPSbits.RB4PPS = 0x19;
  3029  0709  003D               	movlb	29	; select bank29
  3030  070A  081C               	movf	28,w	;volatile
  3031  070B  39E0               	andlw	-32
  3032  070C  3819               	iorlw	25
  3033  070D  009C               	movwf	28	;volatile
  3034  070E                     l1079:
  3035                           
  3036                           ;mcc_generated_files/pin_manager.c: 102:     RB6PPSbits.RB6PPS = 0x18;
  3037  070E  081E               	movf	30,w	;volatile
  3038  070F  39E0               	andlw	-32
  3039  0710  3818               	iorlw	24
  3040  0711  009E               	movwf	30	;volatile
  3041                           
  3042                           ;mcc_generated_files/pin_manager.c: 104:     PPSLOCK = 0x55;
  3043  0712  3055               	movlw	85
  3044  0713  003C               	movlb	28	; select bank28
  3045  0714  008F               	movwf	15	;volsfr
  3046                           
  3047                           ;mcc_generated_files/pin_manager.c: 105:     PPSLOCK = 0xAA;
  3048  0715  30AA               	movlw	170
  3049  0716  008F               	movwf	15	;volsfr
  3050  0717                     l1081:
  3051                           
  3052                           ;mcc_generated_files/pin_manager.c: 106:     PPSLOCKbits.PPSLOCKED = 0x01;
  3053  0717  140F               	bsf	15,0	;volsfr
  3054  0718                     l1083:
  3055                           
  3056                           ;mcc_generated_files/pin_manager.c: 108:     GIE = state;
  3057  0718  0C70               	rrf	PIN_MANAGER_Initialize@state,w
  3058  0719  1C03               	skipc
  3059  071A  138B               	bcf	11,7	;volatile
  3060  071B  1803               	skipnc
  3061  071C  178B               	bsf	11,7	;volatile
  3062  071D                     l76:
  3063  071D  0008               	return
  3064  071E                     __end_of_PIN_MANAGER_Initialize:
  3065                           
  3066                           	psect	text9
  3067  067B                     __ptext9:	
  3068 ;; *************** function _OSCILLATOR_Initialize *****************
  3069 ;; Defined at:
  3070 ;;		line 85 in file "mcc_generated_files/mcc.c"
  3071 ;; Parameters:    Size  Location     Type
  3072 ;;		None
  3073 ;; Auto vars:     Size  Location     Type
  3074 ;;		None
  3075 ;; Return value:  Size  Location     Type
  3076 ;;                  1    wreg      void 
  3077 ;; Registers used:
  3078 ;;		wreg, status,2
  3079 ;; Tracked objects:
  3080 ;;		On entry : 0/0
  3081 ;;		On exit  : 0/0
  3082 ;;		Unchanged: 0/0
  3083 ;; Data sizes:     COMMON   BANK0   BANK1   BANK2   BANK3   BANK4   BANK5   BANK6   BANK7   BANK8   BANK9  BANK10  BANK1
      +1  BANK12
  3084 ;;      Params:         0       0       0       0       0       0       0       0       0       0       0       0       
      +0       0
  3085 ;;      Locals:         0       0       0       0       0       0       0       0       0       0       0       0       
      +0       0
  3086 ;;      Temps:          0       0       0       0       0       0       0       0       0       0       0       0       
      +0       0
  3087 ;;      Totals:         0       0       0       0       0       0       0       0       0       0       0       0       
      +0       0
  3088 ;;Total ram usage:        0 bytes
  3089 ;; Hardware stack levels used: 1
  3090 ;; This function calls:
  3091 ;;		Nothing
  3092 ;; This function is called by:
  3093 ;;		_SYSTEM_Initialize
  3094 ;; This function uses a non-reentrant model
  3095 ;;
  3096                           
  3097  067B                     _OSCILLATOR_Initialize:	
  3098                           ;psect for function _OSCILLATOR_Initialize
  3099                           
  3100  067B                     l1085:	
  3101                           ;incstack = 0
  3102                           ; Regs used in _OSCILLATOR_Initialize: [wreg+status,2]
  3103                           
  3104                           
  3105                           ;mcc_generated_files/mcc.c: 88:     OSCCON1 = 0x00;
  3106  067B  0032               	movlb	18	; select bank18
  3107  067C  0199               	clrf	25	;volatile
  3108                           
  3109                           ;mcc_generated_files/mcc.c: 90:     OSCCON3 = 0x00;
  3110  067D  019B               	clrf	27	;volatile
  3111                           
  3112                           ;mcc_generated_files/mcc.c: 92:     OSCEN = 0x00;
  3113  067E  019D               	clrf	29	;volatile
  3114  067F                     l1087:
  3115                           
  3116                           ;mcc_generated_files/mcc.c: 94:     OSCFRQ = 0x06;
  3117  067F  3006               	movlw	6
  3118  0680  009F               	movwf	31	;volatile
  3119  0681                     l1089:
  3120                           
  3121                           ;mcc_generated_files/mcc.c: 96:     OSCTUNE = 0x00;
  3122  0681  019E               	clrf	30	;volatile
  3123  0682                     l26:
  3124  0682  0008               	return
  3125  0683                     __end_of_OSCILLATOR_Initialize:
  3126  007E                     btemp	set	126	;btemp
  3127  007E                     wtemp0	set	126
  3128                           
  3129                           	psect	idloc
  3130                           
  3131                           ;Config register IDLOC0 @ 0x8000
  3132                           ;	unspecified, using default values
  3133  8000                     	org	32768
  3134  8000  3FFF               	dw	16383
  3135                           
  3136                           ;Config register IDLOC1 @ 0x8001
  3137                           ;	unspecified, using default values
  3138  8001                     	org	32769
  3139  8001  3FFF               	dw	16383
  3140                           
  3141                           ;Config register IDLOC2 @ 0x8002
  3142                           ;	unspecified, using default values
  3143  8002                     	org	32770
  3144  8002  3FFF               	dw	16383
  3145                           
  3146                           ;Config register IDLOC3 @ 0x8003
  3147                           ;	unspecified, using default values
  3148  8003                     	org	32771
  3149  8003  3FFF               	dw	16383
  3150                           
  3151                           	psect	config
  3152                           
  3153                           ;Config register CONFIG1 @ 0x8007
  3154                           ;	FEXTOSC External Oscillator mode Selection bits
  3155                           ;	FEXTOSC = OFF, Oscillator not enabled
  3156                           ;	Power-up default value for COSC bits
  3157                           ;	RSTOSC = HFINT32, HFINTOSC with 2x PLL (32MHz)
  3158                           ;	Clock Out Enable bit
  3159                           ;	CLKOUTEN = OFF, CLKOUT function is disabled; I/O or oscillator function on OSC2
  3160                           ;	Clock Switch Enable bit
  3161                           ;	CSWEN = ON, Writing to NOSC and NDIV is allowed
  3162                           ;	Fail-Safe Clock Monitor Enable
  3163                           ;	FCMEN = ON, Fail-Safe Clock Monitor is enabled
  3164  8007                     	org	32775
  3165  8007  3F8C               	dw	16268
  3166                           
  3167                           ;Config register CONFIG2 @ 0x8008
  3168                           ;	Master Clear Enable bit
  3169                           ;	MCLRE = ON, MCLR/VPP pin function is MCLR; Weak pull-up enabled
  3170                           ;	Power-up Timer Enable bit
  3171                           ;	PWRTE = OFF, PWRT disabled
  3172                           ;	Watchdog Timer Enable bits
  3173                           ;	WDTE = OFF, WDT disabled; SWDTEN is ignored
  3174                           ;	Low-power BOR enable bit
  3175                           ;	LPBOREN = OFF, ULPBOR disabled
  3176                           ;	Brown-out Reset Enable bits
  3177                           ;	BOREN = ON, Brown-out Reset enabled, SBOREN bit ignored
  3178                           ;	Brown-out Reset Voltage selection bit
  3179                           ;	BORV = LOW, Brown-out voltage (Vbor) set to 2.45V
  3180                           ;	PPSLOCK bit One-Way Set Enable bit
  3181                           ;	PPS1WAY = ON, The PPSLOCK bit can be cleared and set only once; PPS registers remain l
      +                          ocked after one clear/set cycle
  3182                           ;	Stack Overflow/Underflow Reset Enable bit
  3183                           ;	STVREN = ON, Stack Overflow or Underflow will cause a Reset
  3184                           ;	Debugger enable bit
  3185                           ;	DEBUG = OFF, Background debugger disabled
  3186  8008                     	org	32776
  3187  8008  3FF3               	dw	16371
  3188                           
  3189                           ;Config register CONFIG3 @ 0x8009
  3190                           ;	User NVM self-write protection bits
  3191                           ;	WRT = OFF, Write protection off
  3192                           ;	Low Voltage Programming Enable bit
  3193                           ;	LVP = ON, Low Voltage programming enabled. MCLR/VPP pin function is MCLR. MCLRE config
      +                          uration bit is ignored.
  3194  8009                     	org	32777
  3195  8009  3FFF               	dw	16383
  3196                           
  3197                           ;Config register CONFIG4 @ 0x800A
  3198                           ;	User NVM Program Memory Code Protection bit
  3199                           ;	CP = OFF, User NVM code protection disabled
  3200                           ;	Data NVM Memory Code Protection bit
  3201                           ;	CPD = OFF, Data NVM code protection disabled
  3202  800A                     	org	32778
  3203  800A  3FFF               	dw	16383

Data Sizes:
    Strings     0
    Constant    2
    Data        2
    BSS         5
    Persistent  32
    Stack       0

Auto Spaces:
    Space          Size  Autos    Used
    COMMON           14      9      14
    BANK0            80      0       2
    BANK1            80      0       0
    BANK2            80      0       0
    BANK3            80      0       0
    BANK4            80      0       0
    BANK5            80      0       0
    BANK6            80      0       0
    BANK7            80      0       0
    BANK8            80      0       0
    BANK9            80      0       0
    BANK10           80      0       0
    BANK11           80      0       0
    BANK12           48      0       0

Pointer List with Targets:

    None.

Critical Paths under _main in COMMON

    _main->_Send_LED_Frame
    _Send_LED_StartFrame->_SPI1_Exchange8bit
    _Send_LED_Frame->_SPI1_Exchange8bit
    _Send_LED_EndFrame->_SPI1_Exchange8bit
    _SYSTEM_Initialize->_PIN_MANAGER_Initialize

Critical Paths under _main in BANK0

    None.

Critical Paths under _main in BANK1

    None.

Critical Paths under _main in BANK2

    None.

Critical Paths under _main in BANK3

    None.

Critical Paths under _main in BANK4

    None.

Critical Paths under _main in BANK5

    None.

Critical Paths under _main in BANK6

    None.

Critical Paths under _main in BANK7

    None.

Critical Paths under _main in BANK8

    None.

Critical Paths under _main in BANK9

    None.

Critical Paths under _main in BANK10

    None.

Critical Paths under _main in BANK11

    None.

Critical Paths under _main in BANK12

    None.

Call Graph Tables:

 ---------------------------------------------------------------------------------
 (Depth) Function   	        Calls       Base Space   Used Autos Params    Refs
 ---------------------------------------------------------------------------------
 (0) _main                                                 4     4      0     793
                                              5 COMMON     4     4      0
                  _SYSTEM_Initialize
                  _Send_LED_EndFrame
                     _Send_LED_Frame
                _Send_LED_StartFrame
 ---------------------------------------------------------------------------------
 (1) _Send_LED_StartFrame                                  3     3      0      68
                                              1 COMMON     3     3      0
                  _SPI1_Exchange8bit
 ---------------------------------------------------------------------------------
 (1) _Send_LED_Frame                                       4     1      3     566
                                              1 COMMON     4     1      3
                  _SPI1_Exchange8bit
 ---------------------------------------------------------------------------------
 (1) _Send_LED_EndFrame                                    3     3      0      68
                                              1 COMMON     3     3      0
                  _SPI1_Exchange8bit
 ---------------------------------------------------------------------------------
 (2) _SPI1_Exchange8bit                                    1     1      0      22
                                              0 COMMON     1     1      0
 ---------------------------------------------------------------------------------
 (1) _SYSTEM_Initialize                                    0     0      0      23
              _OSCILLATOR_Initialize
             _PIN_MANAGER_Initialize
                    _SPI1_Initialize
                     _WDT_Initialize
 ---------------------------------------------------------------------------------
 (2) _WDT_Initialize                                       0     0      0       0
 ---------------------------------------------------------------------------------
 (2) _SPI1_Initialize                                      0     0      0       0
 ---------------------------------------------------------------------------------
 (2) _PIN_MANAGER_Initialize                               1     1      0      23
                                              0 COMMON     1     1      0
 ---------------------------------------------------------------------------------
 (2) _OSCILLATOR_Initialize                                0     0      0       0
 ---------------------------------------------------------------------------------
 Estimated maximum stack depth 2
 ---------------------------------------------------------------------------------

 Call Graph Graphs:

 _main (ROOT)
   _SYSTEM_Initialize
     _OSCILLATOR_Initialize
     _PIN_MANAGER_Initialize
     _SPI1_Initialize
     _WDT_Initialize
   _Send_LED_EndFrame
     _SPI1_Exchange8bit
   _Send_LED_Frame
     _SPI1_Exchange8bit
   _Send_LED_StartFrame
     _SPI1_Exchange8bit

 Address spaces:
Name               Size   Autos  Total    Cost      Usage
BIGRAM             3F0      0       0       0        0.0%
EEDATA             100      0       0       0        0.0%
NULL                 0      0       0       0        0.0%
CODE                 0      0       0       0        0.0%
BITCOMMON            E      0       0       1        0.0%
BITSFR0              0      0       0       1        0.0%
SFR0                 0      0       0       1        0.0%
COMMON               E      9       E       2      100.0%
BITSFR1              0      0       0       2        0.0%
SFR1                 0      0       0       2        0.0%
BITSFR2              0      0       0       3        0.0%
SFR2                 0      0       0       3        0.0%
STACK                0      0       0       3        0.0%
BITBANK0            50      0       0       4        0.0%
BITSFR3              0      0       0       4        0.0%
SFR3                 0      0       0       4        0.0%
BANK0               50      0       2       5        2.5%
BITSFR4              0      0       0       5        0.0%
SFR4                 0      0       0       5        0.0%
BITBANK1            50      0       0       6        0.0%
BITSFR5              0      0       0       6        0.0%
SFR5                 0      0       0       6        0.0%
BANK1               50      0       0       7        0.0%
BITSFR6              0      0       0       7        0.0%
SFR6                 0      0       0       7        0.0%
BITBANK2            50      0       0       8        0.0%
BITSFR7              0      0       0       8        0.0%
SFR7                 0      0       0       8        0.0%
BANK2               50      0       0       9        0.0%
BITSFR8              0      0       0       9        0.0%
SFR8                 0      0       0       9        0.0%
BITBANK3            50      0       0      10        0.0%
BITSFR9              0      0       0      10        0.0%
SFR9                 0      0       0      10        0.0%
BANK3               50      0       0      11        0.0%
BITSFR10             0      0       0      11        0.0%
SFR10                0      0       0      11        0.0%
BITBANK4            50      0       0      12        0.0%
BITSFR11             0      0       0      12        0.0%
SFR11                0      0       0      12        0.0%
BANK4               50      0       0      13        0.0%
BITSFR12             0      0       0      13        0.0%
SFR12                0      0       0      13        0.0%
BITBANK5            50      0       0      14        0.0%
BITSFR13             0      0       0      14        0.0%
SFR13                0      0       0      14        0.0%
BANK5               50      0       0      15        0.0%
BITSFR14             0      0       0      15        0.0%
SFR14                0      0       0      15        0.0%
BITBANK6            50      0       0      16        0.0%
BITSFR15             0      0       0      16        0.0%
SFR15                0      0       0      16        0.0%
BANK6               50      0       0      17        0.0%
BITSFR16             0      0       0      17        0.0%
SFR16                0      0       0      17        0.0%
BITBANK7            50      0       0      18        0.0%
BITSFR17             0      0       0      18        0.0%
SFR17                0      0       0      18        0.0%
BANK7               50      0       0      19        0.0%
BITSFR18             0      0       0      19        0.0%
SFR18                0      0       0      19        0.0%
BITSFR19             0      0       0      20        0.0%
SFR19                0      0       0      20        0.0%
ABS                  0      0      10      20        0.0%
BITBANK8            50      0       0      21        0.0%
BITSFR20             0      0       0      21        0.0%
SFR20                0      0       0      21        0.0%
BANK8               50      0       0      22        0.0%
BITSFR21             0      0       0      22        0.0%
SFR21                0      0       0      22        0.0%
BITBANK9            50      0       0      23        0.0%
BITSFR22             0      0       0      23        0.0%
SFR22                0      0       0      23        0.0%
BANK9               50      0       0      24        0.0%
BITSFR23             0      0       0      24        0.0%
SFR23                0      0       0      24        0.0%
BITBANK10           50      0       0      25        0.0%
BITSFR24             0      0       0      25        0.0%
SFR24                0      0       0      25        0.0%
BANK10              50      0       0      26        0.0%
BITSFR25             0      0       0      26        0.0%
SFR25                0      0       0      26        0.0%
BITBANK11           50      0       0      27        0.0%
BITSFR26             0      0       0      27        0.0%
SFR26                0      0       0      27        0.0%
BANK11              50      0       0      28        0.0%
BITSFR27             0      0       0      28        0.0%
SFR27                0      0       0      28        0.0%
BITBANK12           30      0       0      29        0.0%
BITSFR28             0      0       0      29        0.0%
SFR28                0      0       0      29        0.0%
BANK12              30      0       0      30        0.0%
BITSFR29             0      0       0      30        0.0%
SFR29                0      0       0      30        0.0%
BITSFR30             0      0       0      31        0.0%
SFR30                0      0       0      31        0.0%
DATA                 0      0      10      31        0.0%
BITSFR31             0      0       0      32        0.0%
SFR31                0      0       0      32        0.0%


Microchip Technology PIC Macro Assembler V2.36 build 20220127204148 
Symbol Table                                                                                   Fri Feb 11 14:24:11 2022

             _SPI1_Exchange8bit 0683              ?_SPI1_Exchange8bit 0070                              l23 069A  
                            l26 0682                              l29 0674                              l76 071D  
                            l94 067A                              l97 0688                             l100 068D  
                           l154 06DD                             l149 06AD                             l159 06C5  
                           l175 0755                             l167 072D                             _GIE 005F  
                           u200 068C                             u201 068B                             u210 06DD  
                           u211 06DC                             u220 06C5                             u300 0735  
                           u221 06C4                             u301 0734                             u310 0750  
                           u215 06D9                             u311 074F                             u320 075D  
                           u225 06C1                             u321 075C                             u330 076A  
                           u331 0769                             u340 0779                             u341 0778  
                           u350 0786                             u351 0785                             u360 0795  
                           u361 0794                             u370 07C0                             u290 0728  
                           u371 07BF                             u291 0727                             u380 07E2  
                           u381 07E1                             u397 07E8             ??_SPI1_Exchange8bit 0070  
                           _red 007D                             wreg 0009                            l1101 0686  
                          l1103 068C                            l1111 06C6                            l1121 06D0  
                          l1201 0781                            l1107 068E                            l1131 06B4  
                          l1123 06AE                            l1211 0798                            l1203 0786  
                          l1061 06E9                            l1053 06DE                            l1133 06B8  
                          l1109 069C                            l1117 06C8                            l1205 078B  
                          l1071 0702                            l1063 06EC                            l1055 06E2  
                          l1119 06CC                            l1231 07D8                            l1207 0790  
                          l1215 079A                            l1081 0717                            l1073 0703  
                          l1065 06EE                            l1057 06E5                            l1129 06B0  
                          l1233 07DC                            l1225 07BA                            l1209 0795  
                          l1217 07B6                            l1083 0718                            l1075 0705  
                          l1067 06F8                            l1059 06E7                            l1091 0671  
                          l1235 07E2                            l1227 07C0                            l1219 07B9  
                          l1171 0735                            l1163 071E                            l1085 067B  
                          l1077 0709                            l1069 06FC                            l1093 0675  
                          l1237 07E5                            l1229 07D1                            l1181 0750  
                          l1173 0738                            l1165 0722                            l1087 067F  
                          l1079 070E                            l1095 0677                            l1191 076A  
                          l1183 0758                            l1335 0743                            l1167 0728  
                          l1089 0681                            l1097 0679                            l1337 07A2  
                          l1193 076F                            l1185 075D                            l1169 0730  
                          l1177 073A                            l1099 0684                            l1195 0774  
                          l1187 0760                            l1179 074B                            l1197 0779  
                          l1189 0765                            l1199 077C                ??_Send_LED_Frame 0074  
                          _LATA 010C                            _LATB 010D                            _LATC 010E  
                          _WPUA 020C                            _WPUB 020D                            _WPUC 020E  
                          _blue 007C                            _main 071E                            _step 0021  
                          btemp 007E                            start 0002       __end_of_SPI1_Exchange8bit 068E  
 __end_of_OSCILLATOR_Initialize 0683                           ?_main 0070                           _OSCEN 091D  
                         _TRISA 008C                           _TRISB 008D                           _TRISC 008E  
                _WDT_Initialize 0671                           _green 007B                           status 0003  
                         wtemp0 007E                 __initialization 07F0                    __end_of_main 07F0  
                        ??_main 0075          __end_of_WDT_Initialize 0675                          _ANSELA 018C  
                        _ANSELB 018D                          _ANSELC 018E                          _ODCONA 028C  
                        _ODCONB 028D                          _ODCONC 028E                          _OSCFRQ 091F  
                        _WDTCON 0097           SPI1_Exchange8bit@data 0070                    __pdataCOMMON 007D  
               ?_WDT_Initialize 0070               _SYSTEM_Initialize 068E         __end_of__initialization 07FD  
            ?_SYSTEM_Initialize 0070                    _change_color 007A                  __pcstackCOMMON 0070  
                  __pidataBANK0 066F             ??_SYSTEM_Initialize 0071               ??_SPI1_Initialize 0070  
     __end_of_SYSTEM_Initialize 069B                      __pbssBANK0 0020               _Send_LED_EndFrame 06AE  
            ?_Send_LED_EndFrame 0070                  _SSP1DATPPSbits 0E21                      __pmaintext 071E  
           ??_Send_LED_EndFrame 0071            Send_LED_StartFrame@i 0072                  _SSP1CLKPPSbits 0E20  
                       _OSCCON1 0919                         _OSCCON3 091B                         _OSCTUNE 091E  
                       _SSP1ADD 0212                         _PPSLOCK 0E0F                         _SSP1BUF 0211  
     __end_of_Send_LED_EndFrame 06C6                         __ptext1 06C6                         __ptext2 069B  
                       __ptext3 06AE                         __ptext4 0683                         __ptext5 068E  
                       __ptext6 0671                         __ptext7 0675                         __ptext8 06DE  
                       __ptext9 067B                         _led_run 0079           _OSCILLATOR_Initialize 067B  
      ??_PIN_MANAGER_Initialize 0070                         main@led 0078            end_of_initialization 07FD  
           _Send_LED_StartFrame 06C6            ?_Send_LED_StartFrame 0070                ??_WDT_Initialize 0070  
               _SPI1_Initialize 0675         Send_LED_Frame@intensity 0074           ??_Send_LED_StartFrame 0071  
                 __pidataCOMMON 0670          ?_OSCILLATOR_Initialize 0070             start_initialization 07F0  
          __end_of_NumberOfLEDs 0802                     __pdataBANK0 0021                     __pbssCOMMON 0079  
                     ___latbits 0002         __end_of_SPI1_Initialize 067B          _PIN_MANAGER_Initialize 06DE  
                _Send_LED_Frame 069B                       _direction 0020          __end_of_Send_LED_Frame 06AE  
                      _SSP1CON1 0215                        _SSP1STAT 0214                ?_SPI1_Initialize 0070  
               ?_Send_LED_Frame 0071         ??_OSCILLATOR_Initialize 0070                    _NumberOfLEDs 0800  
                  _SSP1CON1bits 0215     __end_of_Send_LED_StartFrame 06DE                      _RB4PPSbits 0E9C  
                    _RB6PPSbits 0E9E                    _SSP1STATbits 0214     PIN_MANAGER_Initialize@state 0070  
           Send_LED_Frame@green 0072              Send_LED_EndFrame@i 0072         ?_PIN_MANAGER_Initialize 0070  
                   _PPSLOCKbits 0E0F                   __pstringtext1 0800              Send_LED_Frame@blue 0071  
             Send_LED_Frame@red 0073  __end_of_PIN_MANAGER_Initialize 071E  
